
build/test_task_switch:     file format elf64-littleriscv


Disassembly of section .text:

0000000080000000 <_start>:
    80000000:	0000c117          	auipc	sp,0xc
    80000004:	a1010113          	add	sp,sp,-1520 # 8000ba10 <ks_stack>
    80000008:	f14022f3          	csrr	t0,mhartid
    8000000c:	00028233          	add	tp,t0,zero
    80000010:	4305                	li	t1,1
    80000012:	929a                	add	t0,t0,t1
    80000014:	6305                	lui	t1,0x1
    80000016:	026282b3          	mul	t0,t0,t1
    8000001a:	9116                	add	sp,sp,t0
    8000001c:	17a0006f          	j	80000196 <bsp_init>

0000000080000020 <spin>:
    80000020:	a001                	j	80000020 <spin>

0000000080000022 <nextcmp>:
    80000022:	7179                	add	sp,sp,-48
    80000024:	f406                	sd	ra,40(sp)
    80000026:	042010ef          	jal	80001068 <r_mhartid>
    8000002a:	ec2a                	sd	a0,24(sp)
    8000002c:	000f47b7          	lui	a5,0xf4
    80000030:	24078793          	add	a5,a5,576 # f4240 <CPU_MSTATUS_MIE+0xf4238>
    80000034:	e83e                	sd	a5,16(sp)
    80000036:	0200c7b7          	lui	a5,0x200c
    8000003a:	17e1                	add	a5,a5,-8 # 200bff8 <CPU_MSTATUS_MIE+0x200bff0>
    8000003c:	639c                	ld	a5,0(a5)
    8000003e:	e43e                	sd	a5,8(sp)
    80000040:	6722                	ld	a4,8(sp)
    80000042:	67c2                	ld	a5,16(sp)
    80000044:	97ba                	add	a5,a5,a4
    80000046:	e43e                	sd	a5,8(sp)
    80000048:	6762                	ld	a4,24(sp)
    8000004a:	004017b7          	lui	a5,0x401
    8000004e:	80078793          	add	a5,a5,-2048 # 400800 <CPU_MSTATUS_MIE+0x4007f8>
    80000052:	97ba                	add	a5,a5,a4
    80000054:	078e                	sll	a5,a5,0x3
    80000056:	873e                	mv	a4,a5
    80000058:	67a2                	ld	a5,8(sp)
    8000005a:	e31c                	sd	a5,0(a4)
    8000005c:	0001                	nop
    8000005e:	70a2                	ld	ra,40(sp)
    80000060:	6145                	add	sp,sp,48
    80000062:	8082                	ret

0000000080000064 <trap_handler>:
    80000064:	7139                	add	sp,sp,-64
    80000066:	fc06                	sd	ra,56(sp)
    80000068:	ec2a                	sd	a0,24(sp)
    8000006a:	e82e                	sd	a1,16(sp)
    8000006c:	e432                	sd	a2,8(sp)
    8000006e:	67e2                	ld	a5,24(sp)
    80000070:	0807d563          	bgez	a5,800000fa <trap_handler+0x96>
    80000074:	6762                	ld	a4,24(sp)
    80000076:	57fd                	li	a5,-1
    80000078:	8385                	srl	a5,a5,0x1
    8000007a:	8ff9                	and	a5,a5,a4
    8000007c:	ec3e                	sd	a5,24(sp)
    8000007e:	6762                	ld	a4,24(sp)
    80000080:	479d                	li	a5,7
    80000082:	02f71b63          	bne	a4,a5,800000b8 <trap_handler+0x54>
    80000086:	749040ef          	jal	80004fce <OSIntEnter>
    8000008a:	f99ff0ef          	jal	80000022 <nextcmp>
    8000008e:	041070ef          	jal	800078ce <OSTimeTick>
    80000092:	7c7000ef          	jal	80001058 <r_mstatus>
    80000096:	f02a                	sd	a0,32(sp)
    80000098:	7782                	ld	a5,32(sp)
    8000009a:	0807e793          	or	a5,a5,128
    8000009e:	f03e                	sd	a5,32(sp)
    800000a0:	7702                	ld	a4,32(sp)
    800000a2:	6789                	lui	a5,0x2
    800000a4:	80078793          	add	a5,a5,-2048 # 1800 <CPU_MSTATUS_MIE+0x17f8>
    800000a8:	8fd9                	or	a5,a5,a4
    800000aa:	f03e                	sd	a5,32(sp)
    800000ac:	7502                	ld	a0,32(sp)
    800000ae:	134010ef          	jal	800011e2 <w_mstatus>
    800000b2:	76f040ef          	jal	80005020 <OSIntExit>
    800000b6:	a881                	j	80000106 <trap_handler+0xa2>
    800000b8:	6762                	ld	a4,24(sp)
    800000ba:	4785                	li	a5,1
    800000bc:	02f71863          	bne	a4,a5,800000ec <trap_handler+0x88>
    800000c0:	799000ef          	jal	80001058 <r_mstatus>
    800000c4:	f42a                	sd	a0,40(sp)
    800000c6:	77a2                	ld	a5,40(sp)
    800000c8:	0807e793          	or	a5,a5,128
    800000cc:	f43e                	sd	a5,40(sp)
    800000ce:	7722                	ld	a4,40(sp)
    800000d0:	6789                	lui	a5,0x2
    800000d2:	80078793          	add	a5,a5,-2048 # 1800 <CPU_MSTATUS_MIE+0x17f8>
    800000d6:	8fd9                	or	a5,a5,a4
    800000d8:	f43e                	sd	a5,40(sp)
    800000da:	7522                	ld	a0,40(sp)
    800000dc:	106010ef          	jal	800011e2 <w_mstatus>
    800000e0:	67a2                	ld	a5,8(sp)
    800000e2:	00078633          	add	a2,a5,zero
    800000e6:	76a010ef          	jal	80001850 <Software_IRQHandler>
    800000ea:	a831                	j	80000106 <trap_handler+0xa2>
    800000ec:	0000b517          	auipc	a0,0xb
    800000f0:	03450513          	add	a0,a0,52 # 8000b120 <OSDbg_DataSize+0x10>
    800000f4:	5e3000ef          	jal	80000ed6 <panic>
    800000f8:	a039                	j	80000106 <trap_handler+0xa2>
    800000fa:	0000b517          	auipc	a0,0xb
    800000fe:	02e50513          	add	a0,a0,46 # 8000b128 <OSDbg_DataSize+0x18>
    80000102:	5d5000ef          	jal	80000ed6 <panic>
    80000106:	0001                	nop
    80000108:	70e2                	ld	ra,56(sp)
    8000010a:	6121                	add	sp,sp,64
    8000010c:	8082                	ret

000000008000010e <timer_init>:
    8000010e:	7179                	add	sp,sp,-48
    80000110:	f406                	sd	ra,40(sp)
    80000112:	757000ef          	jal	80001068 <r_mhartid>
    80000116:	ec2a                	sd	a0,24(sp)
    80000118:	000f47b7          	lui	a5,0xf4
    8000011c:	24078793          	add	a5,a5,576 # f4240 <CPU_MSTATUS_MIE+0xf4238>
    80000120:	e83e                	sd	a5,16(sp)
    80000122:	0200c7b7          	lui	a5,0x200c
    80000126:	17e1                	add	a5,a5,-8 # 200bff8 <CPU_MSTATUS_MIE+0x200bff0>
    80000128:	639c                	ld	a5,0(a5)
    8000012a:	e43e                	sd	a5,8(sp)
    8000012c:	6722                	ld	a4,8(sp)
    8000012e:	67c2                	ld	a5,16(sp)
    80000130:	97ba                	add	a5,a5,a4
    80000132:	e43e                	sd	a5,8(sp)
    80000134:	6762                	ld	a4,24(sp)
    80000136:	004017b7          	lui	a5,0x401
    8000013a:	80078793          	add	a5,a5,-2048 # 400800 <CPU_MSTATUS_MIE+0x4007f8>
    8000013e:	97ba                	add	a5,a5,a4
    80000140:	078e                	sll	a5,a5,0x3
    80000142:	873e                	mv	a4,a5
    80000144:	67a2                	ld	a5,8(sp)
    80000146:	e31c                	sd	a5,0(a4)
    80000148:	661000ef          	jal	80000fa8 <r_mie>
    8000014c:	872a                	mv	a4,a0
    8000014e:	6785                	lui	a5,0x1
    80000150:	88a78793          	add	a5,a5,-1910 # 88a <CPU_MSTATUS_MIE+0x882>
    80000154:	8fd9                	or	a5,a5,a4
    80000156:	853e                	mv	a0,a5
    80000158:	7db000ef          	jal	80001132 <w_mie>
    8000015c:	6fd000ef          	jal	80001058 <r_mstatus>
    80000160:	872a                	mv	a4,a0
    80000162:	7ffff7b7          	lui	a5,0x7ffff
    80000166:	0786                	sll	a5,a5,0x1
    80000168:	77f78793          	add	a5,a5,1919 # 7ffff77f <CPU_MSTATUS_MIE+0x7ffff777>
    8000016c:	8f7d                	and	a4,a4,a5
    8000016e:	6789                	lui	a5,0x2
    80000170:	80078793          	add	a5,a5,-2048 # 1800 <CPU_MSTATUS_MIE+0x17f8>
    80000174:	8fd9                	or	a5,a5,a4
    80000176:	853e                	mv	a0,a5
    80000178:	06a010ef          	jal	800011e2 <w_mstatus>
    8000017c:	0000a797          	auipc	a5,0xa
    80000180:	3d678793          	add	a5,a5,982 # 8000a552 <main>
    80000184:	853e                	mv	a0,a5
    80000186:	7dd000ef          	jal	80001162 <w_mepc>
    8000018a:	30200073          	mret
    8000018e:	0001                	nop
    80000190:	70a2                	ld	ra,40(sp)
    80000192:	6145                	add	sp,sp,48
    80000194:	8082                	ret

0000000080000196 <bsp_init>:
    80000196:	1141                	add	sp,sp,-16
    80000198:	e406                	sd	ra,8(sp)
    8000019a:	4501                	li	a0,0
    8000019c:	7a7000ef          	jal	80001142 <w_satp>
    800001a0:	026000ef          	jal	800001c6 <uart_init>
    800001a4:	0000b517          	auipc	a0,0xb
    800001a8:	f9450513          	add	a0,a0,-108 # 8000b138 <OSDbg_DataSize+0x28>
    800001ac:	3c8000ef          	jal	80000574 <printf>
    800001b0:	00001797          	auipc	a5,0x1
    800001b4:	0b078793          	add	a5,a5,176 # 80001260 <trap_entry>
    800001b8:	853e                	mv	a0,a5
    800001ba:	7e9000ef          	jal	800011a2 <w_mtvec>
    800001be:	f51ff0ef          	jal	8000010e <timer_init>
    800001c2:	0001                	nop
    800001c4:	bffd                	j	800001c2 <bsp_init+0x2c>

00000000800001c6 <uart_init>:
    800001c6:	100007b7          	lui	a5,0x10000
    800001ca:	0785                	add	a5,a5,1 # 10000001 <CPU_MSTATUS_MIE+0xffffff9>
    800001cc:	00078023          	sb	zero,0(a5)
    800001d0:	100007b7          	lui	a5,0x10000
    800001d4:	078d                	add	a5,a5,3 # 10000003 <CPU_MSTATUS_MIE+0xffffffb>
    800001d6:	f8000713          	li	a4,-128
    800001da:	00e78023          	sb	a4,0(a5)
    800001de:	100007b7          	lui	a5,0x10000
    800001e2:	470d                	li	a4,3
    800001e4:	00e78023          	sb	a4,0(a5) # 10000000 <CPU_MSTATUS_MIE+0xffffff8>
    800001e8:	100007b7          	lui	a5,0x10000
    800001ec:	0785                	add	a5,a5,1 # 10000001 <CPU_MSTATUS_MIE+0xffffff9>
    800001ee:	00078023          	sb	zero,0(a5)
    800001f2:	100007b7          	lui	a5,0x10000
    800001f6:	078d                	add	a5,a5,3 # 10000003 <CPU_MSTATUS_MIE+0xffffffb>
    800001f8:	470d                	li	a4,3
    800001fa:	00e78023          	sb	a4,0(a5)
    800001fe:	100007b7          	lui	a5,0x10000
    80000202:	0789                	add	a5,a5,2 # 10000002 <CPU_MSTATUS_MIE+0xffffffa>
    80000204:	471d                	li	a4,7
    80000206:	00e78023          	sb	a4,0(a5)
    8000020a:	100007b7          	lui	a5,0x10000
    8000020e:	0785                	add	a5,a5,1 # 10000001 <CPU_MSTATUS_MIE+0xffffff9>
    80000210:	470d                	li	a4,3
    80000212:	00e78023          	sb	a4,0(a5)
    80000216:	0001                	nop
    80000218:	8082                	ret

000000008000021a <uart_putc_sync>:
    8000021a:	1101                	add	sp,sp,-32
    8000021c:	87aa                	mv	a5,a0
    8000021e:	00f107a3          	sb	a5,15(sp)
    80000222:	00010fa3          	sb	zero,31(sp)
    80000226:	0001                	nop
    80000228:	100007b7          	lui	a5,0x10000
    8000022c:	0795                	add	a5,a5,5 # 10000005 <CPU_MSTATUS_MIE+0xffffffd>
    8000022e:	0007c783          	lbu	a5,0(a5)
    80000232:	00f10fa3          	sb	a5,31(sp)
    80000236:	01f14783          	lbu	a5,31(sp)
    8000023a:	2781                	sext.w	a5,a5
    8000023c:	0207f793          	and	a5,a5,32
    80000240:	2781                	sext.w	a5,a5
    80000242:	d3fd                	beqz	a5,80000228 <uart_putc_sync+0xe>
    80000244:	100007b7          	lui	a5,0x10000
    80000248:	00f14703          	lbu	a4,15(sp)
    8000024c:	00e78023          	sb	a4,0(a5) # 10000000 <CPU_MSTATUS_MIE+0xffffff8>
    80000250:	0001                	nop
    80000252:	6105                	add	sp,sp,32
    80000254:	8082                	ret

0000000080000256 <strlen>:
    80000256:	1101                	add	sp,sp,-32
    80000258:	e42a                	sd	a0,8(sp)
    8000025a:	ce02                	sw	zero,28(sp)
    8000025c:	a021                	j	80000264 <strlen+0xe>
    8000025e:	47f2                	lw	a5,28(sp)
    80000260:	2785                	addw	a5,a5,1
    80000262:	ce3e                	sw	a5,28(sp)
    80000264:	01c16783          	lwu	a5,28(sp)
    80000268:	6722                	ld	a4,8(sp)
    8000026a:	97ba                	add	a5,a5,a4
    8000026c:	0007c783          	lbu	a5,0(a5)
    80000270:	f7fd                	bnez	a5,8000025e <strlen+0x8>
    80000272:	47f2                	lw	a5,28(sp)
    80000274:	853e                	mv	a0,a5
    80000276:	6105                	add	sp,sp,32
    80000278:	8082                	ret

000000008000027a <strcpy>:
    8000027a:	1101                	add	sp,sp,-32
    8000027c:	e42a                	sd	a0,8(sp)
    8000027e:	e02e                	sd	a1,0(sp)
    80000280:	ce02                	sw	zero,28(sp)
    80000282:	a831                	j	8000029e <strcpy+0x24>
    80000284:	47f2                	lw	a5,28(sp)
    80000286:	6702                	ld	a4,0(sp)
    80000288:	973e                	add	a4,a4,a5
    8000028a:	47f2                	lw	a5,28(sp)
    8000028c:	66a2                	ld	a3,8(sp)
    8000028e:	97b6                	add	a5,a5,a3
    80000290:	00074703          	lbu	a4,0(a4)
    80000294:	00e78023          	sb	a4,0(a5)
    80000298:	47f2                	lw	a5,28(sp)
    8000029a:	2785                	addw	a5,a5,1
    8000029c:	ce3e                	sw	a5,28(sp)
    8000029e:	47f2                	lw	a5,28(sp)
    800002a0:	6702                	ld	a4,0(sp)
    800002a2:	97ba                	add	a5,a5,a4
    800002a4:	0007c783          	lbu	a5,0(a5)
    800002a8:	fff1                	bnez	a5,80000284 <strcpy+0xa>
    800002aa:	67a2                	ld	a5,8(sp)
    800002ac:	853e                	mv	a0,a5
    800002ae:	6105                	add	sp,sp,32
    800002b0:	8082                	ret

00000000800002b2 <strncpy>:
    800002b2:	7179                	add	sp,sp,-48
    800002b4:	ec2a                	sd	a0,24(sp)
    800002b6:	e82e                	sd	a1,16(sp)
    800002b8:	87b2                	mv	a5,a2
    800002ba:	c63e                	sw	a5,12(sp)
    800002bc:	d602                	sw	zero,44(sp)
    800002be:	a831                	j	800002da <strncpy+0x28>
    800002c0:	57b2                	lw	a5,44(sp)
    800002c2:	6742                	ld	a4,16(sp)
    800002c4:	973e                	add	a4,a4,a5
    800002c6:	57b2                	lw	a5,44(sp)
    800002c8:	66e2                	ld	a3,24(sp)
    800002ca:	97b6                	add	a5,a5,a3
    800002cc:	00074703          	lbu	a4,0(a4)
    800002d0:	00e78023          	sb	a4,0(a5)
    800002d4:	57b2                	lw	a5,44(sp)
    800002d6:	2785                	addw	a5,a5,1
    800002d8:	d63e                	sw	a5,44(sp)
    800002da:	57b2                	lw	a5,44(sp)
    800002dc:	6742                	ld	a4,16(sp)
    800002de:	97ba                	add	a5,a5,a4
    800002e0:	0007c783          	lbu	a5,0(a5)
    800002e4:	c791                	beqz	a5,800002f0 <strncpy+0x3e>
    800002e6:	5732                	lw	a4,44(sp)
    800002e8:	47b2                	lw	a5,12(sp)
    800002ea:	2781                	sext.w	a5,a5
    800002ec:	fcf76ae3          	bltu	a4,a5,800002c0 <strncpy+0xe>
    800002f0:	67e2                	ld	a5,24(sp)
    800002f2:	853e                	mv	a0,a5
    800002f4:	6145                	add	sp,sp,48
    800002f6:	8082                	ret

00000000800002f8 <strcmp>:
    800002f8:	1101                	add	sp,sp,-32
    800002fa:	e42a                	sd	a0,8(sp)
    800002fc:	e02e                	sd	a1,0(sp)
    800002fe:	ce02                	sw	zero,28(sp)
    80000300:	a091                	j	80000344 <strcmp+0x4c>
    80000302:	47f2                	lw	a5,28(sp)
    80000304:	6722                	ld	a4,8(sp)
    80000306:	97ba                	add	a5,a5,a4
    80000308:	0007c683          	lbu	a3,0(a5)
    8000030c:	47f2                	lw	a5,28(sp)
    8000030e:	6702                	ld	a4,0(sp)
    80000310:	97ba                	add	a5,a5,a4
    80000312:	0007c783          	lbu	a5,0(a5)
    80000316:	8736                	mv	a4,a3
    80000318:	02f70363          	beq	a4,a5,8000033e <strcmp+0x46>
    8000031c:	47f2                	lw	a5,28(sp)
    8000031e:	6722                	ld	a4,8(sp)
    80000320:	97ba                	add	a5,a5,a4
    80000322:	0007c783          	lbu	a5,0(a5)
    80000326:	0007871b          	sext.w	a4,a5
    8000032a:	47f2                	lw	a5,28(sp)
    8000032c:	6682                	ld	a3,0(sp)
    8000032e:	97b6                	add	a5,a5,a3
    80000330:	0007c783          	lbu	a5,0(a5)
    80000334:	2781                	sext.w	a5,a5
    80000336:	40f707bb          	subw	a5,a4,a5
    8000033a:	2781                	sext.w	a5,a5
    8000033c:	a00d                	j	8000035e <strcmp+0x66>
    8000033e:	47f2                	lw	a5,28(sp)
    80000340:	2785                	addw	a5,a5,1
    80000342:	ce3e                	sw	a5,28(sp)
    80000344:	47f2                	lw	a5,28(sp)
    80000346:	6722                	ld	a4,8(sp)
    80000348:	97ba                	add	a5,a5,a4
    8000034a:	0007c783          	lbu	a5,0(a5)
    8000034e:	fbd5                	bnez	a5,80000302 <strcmp+0xa>
    80000350:	47f2                	lw	a5,28(sp)
    80000352:	6702                	ld	a4,0(sp)
    80000354:	97ba                	add	a5,a5,a4
    80000356:	0007c783          	lbu	a5,0(a5)
    8000035a:	f7c5                	bnez	a5,80000302 <strcmp+0xa>
    8000035c:	4781                	li	a5,0
    8000035e:	853e                	mv	a0,a5
    80000360:	6105                	add	sp,sp,32
    80000362:	8082                	ret

0000000080000364 <strcat>:
    80000364:	1101                	add	sp,sp,-32
    80000366:	e42a                	sd	a0,8(sp)
    80000368:	e02e                	sd	a1,0(sp)
    8000036a:	67a2                	ld	a5,8(sp)
    8000036c:	ec3e                	sd	a5,24(sp)
    8000036e:	a021                	j	80000376 <strcat+0x12>
    80000370:	67e2                	ld	a5,24(sp)
    80000372:	0785                	add	a5,a5,1
    80000374:	ec3e                	sd	a5,24(sp)
    80000376:	67e2                	ld	a5,24(sp)
    80000378:	0007c783          	lbu	a5,0(a5)
    8000037c:	fbf5                	bnez	a5,80000370 <strcat+0xc>
    8000037e:	ca02                	sw	zero,20(sp)
    80000380:	a839                	j	8000039e <strcat+0x3a>
    80000382:	47d2                	lw	a5,20(sp)
    80000384:	6702                	ld	a4,0(sp)
    80000386:	97ba                	add	a5,a5,a4
    80000388:	0007c703          	lbu	a4,0(a5)
    8000038c:	67e2                	ld	a5,24(sp)
    8000038e:	00e78023          	sb	a4,0(a5)
    80000392:	47d2                	lw	a5,20(sp)
    80000394:	2785                	addw	a5,a5,1
    80000396:	ca3e                	sw	a5,20(sp)
    80000398:	67e2                	ld	a5,24(sp)
    8000039a:	0785                	add	a5,a5,1
    8000039c:	ec3e                	sd	a5,24(sp)
    8000039e:	47d2                	lw	a5,20(sp)
    800003a0:	6702                	ld	a4,0(sp)
    800003a2:	97ba                	add	a5,a5,a4
    800003a4:	0007c783          	lbu	a5,0(a5)
    800003a8:	ffe9                	bnez	a5,80000382 <strcat+0x1e>
    800003aa:	67e2                	ld	a5,24(sp)
    800003ac:	00078023          	sb	zero,0(a5)
    800003b0:	67a2                	ld	a5,8(sp)
    800003b2:	853e                	mv	a0,a5
    800003b4:	6105                	add	sp,sp,32
    800003b6:	8082                	ret

00000000800003b8 <strchr>:
    800003b8:	1101                	add	sp,sp,-32
    800003ba:	e42a                	sd	a0,8(sp)
    800003bc:	87ae                	mv	a5,a1
    800003be:	c23e                	sw	a5,4(sp)
    800003c0:	67a2                	ld	a5,8(sp)
    800003c2:	ec3e                	sd	a5,24(sp)
    800003c4:	67e2                	ld	a5,24(sp)
    800003c6:	0007c783          	lbu	a5,0(a5)
    800003ca:	0007871b          	sext.w	a4,a5
    800003ce:	4792                	lw	a5,4(sp)
    800003d0:	2781                	sext.w	a5,a5
    800003d2:	00e79463          	bne	a5,a4,800003da <strchr+0x22>
    800003d6:	67e2                	ld	a5,24(sp)
    800003d8:	a809                	j	800003ea <strchr+0x32>
    800003da:	67e2                	ld	a5,24(sp)
    800003dc:	00178713          	add	a4,a5,1
    800003e0:	ec3a                	sd	a4,24(sp)
    800003e2:	0007c783          	lbu	a5,0(a5)
    800003e6:	fff9                	bnez	a5,800003c4 <strchr+0xc>
    800003e8:	4781                	li	a5,0
    800003ea:	853e                	mv	a0,a5
    800003ec:	6105                	add	sp,sp,32
    800003ee:	8082                	ret

00000000800003f0 <strrchr>:
    800003f0:	1101                	add	sp,sp,-32
    800003f2:	e42a                	sd	a0,8(sp)
    800003f4:	87ae                	mv	a5,a1
    800003f6:	c23e                	sw	a5,4(sp)
    800003f8:	67a2                	ld	a5,8(sp)
    800003fa:	ec3e                	sd	a5,24(sp)
    800003fc:	e802                	sd	zero,16(sp)
    800003fe:	67e2                	ld	a5,24(sp)
    80000400:	0007c783          	lbu	a5,0(a5)
    80000404:	0007871b          	sext.w	a4,a5
    80000408:	4792                	lw	a5,4(sp)
    8000040a:	2781                	sext.w	a5,a5
    8000040c:	00e79863          	bne	a5,a4,8000041c <strrchr+0x2c>
    80000410:	67e2                	ld	a5,24(sp)
    80000412:	00178713          	add	a4,a5,1
    80000416:	ec3a                	sd	a4,24(sp)
    80000418:	e83e                	sd	a5,16(sp)
    8000041a:	b7d5                	j	800003fe <strrchr+0xe>
    8000041c:	67e2                	ld	a5,24(sp)
    8000041e:	00178713          	add	a4,a5,1
    80000422:	ec3a                	sd	a4,24(sp)
    80000424:	0007c783          	lbu	a5,0(a5)
    80000428:	c391                	beqz	a5,8000042c <strrchr+0x3c>
    8000042a:	bfd1                	j	800003fe <strrchr+0xe>
    8000042c:	0001                	nop
    8000042e:	67c2                	ld	a5,16(sp)
    80000430:	853e                	mv	a0,a5
    80000432:	6105                	add	sp,sp,32
    80000434:	8082                	ret

0000000080000436 <memcmp>:
    80000436:	7139                	add	sp,sp,-64
    80000438:	ec2a                	sd	a0,24(sp)
    8000043a:	e82e                	sd	a1,16(sp)
    8000043c:	87b2                	mv	a5,a2
    8000043e:	c63e                	sw	a5,12(sp)
    80000440:	67e2                	ld	a5,24(sp)
    80000442:	f83e                	sd	a5,48(sp)
    80000444:	67c2                	ld	a5,16(sp)
    80000446:	f43e                	sd	a5,40(sp)
    80000448:	de02                	sw	zero,60(sp)
    8000044a:	a091                	j	8000048e <memcmp+0x58>
    8000044c:	57f2                	lw	a5,60(sp)
    8000044e:	7742                	ld	a4,48(sp)
    80000450:	97ba                	add	a5,a5,a4
    80000452:	0007c683          	lbu	a3,0(a5)
    80000456:	57f2                	lw	a5,60(sp)
    80000458:	7722                	ld	a4,40(sp)
    8000045a:	97ba                	add	a5,a5,a4
    8000045c:	0007c783          	lbu	a5,0(a5)
    80000460:	8736                	mv	a4,a3
    80000462:	02f70363          	beq	a4,a5,80000488 <memcmp+0x52>
    80000466:	57f2                	lw	a5,60(sp)
    80000468:	7742                	ld	a4,48(sp)
    8000046a:	97ba                	add	a5,a5,a4
    8000046c:	0007c783          	lbu	a5,0(a5)
    80000470:	0007871b          	sext.w	a4,a5
    80000474:	57f2                	lw	a5,60(sp)
    80000476:	76a2                	ld	a3,40(sp)
    80000478:	97b6                	add	a5,a5,a3
    8000047a:	0007c783          	lbu	a5,0(a5)
    8000047e:	2781                	sext.w	a5,a5
    80000480:	40f707bb          	subw	a5,a4,a5
    80000484:	2781                	sext.w	a5,a5
    80000486:	a811                	j	8000049a <memcmp+0x64>
    80000488:	57f2                	lw	a5,60(sp)
    8000048a:	2785                	addw	a5,a5,1
    8000048c:	de3e                	sw	a5,60(sp)
    8000048e:	5772                	lw	a4,60(sp)
    80000490:	47b2                	lw	a5,12(sp)
    80000492:	2781                	sext.w	a5,a5
    80000494:	faf76ce3          	bltu	a4,a5,8000044c <memcmp+0x16>
    80000498:	4781                	li	a5,0
    8000049a:	853e                	mv	a0,a5
    8000049c:	6121                	add	sp,sp,64
    8000049e:	8082                	ret

00000000800004a0 <memcpy>:
    800004a0:	7139                	add	sp,sp,-64
    800004a2:	ec2a                	sd	a0,24(sp)
    800004a4:	e82e                	sd	a1,16(sp)
    800004a6:	87b2                	mv	a5,a2
    800004a8:	c63e                	sw	a5,12(sp)
    800004aa:	67e2                	ld	a5,24(sp)
    800004ac:	f83e                	sd	a5,48(sp)
    800004ae:	67c2                	ld	a5,16(sp)
    800004b0:	f43e                	sd	a5,40(sp)
    800004b2:	de02                	sw	zero,60(sp)
    800004b4:	a005                	j	800004d4 <memcpy+0x34>
    800004b6:	03c16783          	lwu	a5,60(sp)
    800004ba:	7722                	ld	a4,40(sp)
    800004bc:	973e                	add	a4,a4,a5
    800004be:	03c16783          	lwu	a5,60(sp)
    800004c2:	76c2                	ld	a3,48(sp)
    800004c4:	97b6                	add	a5,a5,a3
    800004c6:	00074703          	lbu	a4,0(a4)
    800004ca:	00e78023          	sb	a4,0(a5)
    800004ce:	57f2                	lw	a5,60(sp)
    800004d0:	2785                	addw	a5,a5,1
    800004d2:	de3e                	sw	a5,60(sp)
    800004d4:	57f2                	lw	a5,60(sp)
    800004d6:	873e                	mv	a4,a5
    800004d8:	47b2                	lw	a5,12(sp)
    800004da:	2701                	sext.w	a4,a4
    800004dc:	2781                	sext.w	a5,a5
    800004de:	fcf76ce3          	bltu	a4,a5,800004b6 <memcpy+0x16>
    800004e2:	67e2                	ld	a5,24(sp)
    800004e4:	853e                	mv	a0,a5
    800004e6:	6121                	add	sp,sp,64
    800004e8:	8082                	ret

00000000800004ea <memchr>:
    800004ea:	1101                	add	sp,sp,-32
    800004ec:	e42a                	sd	a0,8(sp)
    800004ee:	87ae                	mv	a5,a1
    800004f0:	8732                	mv	a4,a2
    800004f2:	c23e                	sw	a5,4(sp)
    800004f4:	87ba                	mv	a5,a4
    800004f6:	c03e                	sw	a5,0(sp)
    800004f8:	67a2                	ld	a5,8(sp)
    800004fa:	e83e                	sd	a5,16(sp)
    800004fc:	ce02                	sw	zero,28(sp)
    800004fe:	a01d                	j	80000524 <memchr+0x3a>
    80000500:	47f2                	lw	a5,28(sp)
    80000502:	6742                	ld	a4,16(sp)
    80000504:	97ba                	add	a5,a5,a4
    80000506:	0007c783          	lbu	a5,0(a5)
    8000050a:	0007871b          	sext.w	a4,a5
    8000050e:	4792                	lw	a5,4(sp)
    80000510:	2781                	sext.w	a5,a5
    80000512:	00e79663          	bne	a5,a4,8000051e <memchr+0x34>
    80000516:	47f2                	lw	a5,28(sp)
    80000518:	6742                	ld	a4,16(sp)
    8000051a:	97ba                	add	a5,a5,a4
    8000051c:	a811                	j	80000530 <memchr+0x46>
    8000051e:	47f2                	lw	a5,28(sp)
    80000520:	2785                	addw	a5,a5,1
    80000522:	ce3e                	sw	a5,28(sp)
    80000524:	4772                	lw	a4,28(sp)
    80000526:	4782                	lw	a5,0(sp)
    80000528:	2781                	sext.w	a5,a5
    8000052a:	fcf76be3          	bltu	a4,a5,80000500 <memchr+0x16>
    8000052e:	4781                	li	a5,0
    80000530:	853e                	mv	a0,a5
    80000532:	6105                	add	sp,sp,32
    80000534:	8082                	ret

0000000080000536 <memset>:
    80000536:	1101                	add	sp,sp,-32
    80000538:	e42a                	sd	a0,8(sp)
    8000053a:	87ae                	mv	a5,a1
    8000053c:	8732                	mv	a4,a2
    8000053e:	00f103a3          	sb	a5,7(sp)
    80000542:	87ba                	mv	a5,a4
    80000544:	c03e                	sw	a5,0(sp)
    80000546:	67a2                	ld	a5,8(sp)
    80000548:	e83e                	sd	a5,16(sp)
    8000054a:	ce02                	sw	zero,28(sp)
    8000054c:	a819                	j	80000562 <memset+0x2c>
    8000054e:	47f2                	lw	a5,28(sp)
    80000550:	6742                	ld	a4,16(sp)
    80000552:	97ba                	add	a5,a5,a4
    80000554:	00714703          	lbu	a4,7(sp)
    80000558:	00e78023          	sb	a4,0(a5)
    8000055c:	47f2                	lw	a5,28(sp)
    8000055e:	2785                	addw	a5,a5,1
    80000560:	ce3e                	sw	a5,28(sp)
    80000562:	4772                	lw	a4,28(sp)
    80000564:	4782                	lw	a5,0(sp)
    80000566:	2781                	sext.w	a5,a5
    80000568:	fef763e3          	bltu	a4,a5,8000054e <memset+0x18>
    8000056c:	67c2                	ld	a5,16(sp)
    8000056e:	853e                	mv	a0,a5
    80000570:	6105                	add	sp,sp,32
    80000572:	8082                	ret

0000000080000574 <printf>:
    80000574:	7149                	add	sp,sp,-368
    80000576:	f606                	sd	ra,296(sp)
    80000578:	e42a                	sd	a0,8(sp)
    8000057a:	fe2e                	sd	a1,312(sp)
    8000057c:	e2b2                	sd	a2,320(sp)
    8000057e:	e6b6                	sd	a3,328(sp)
    80000580:	eaba                	sd	a4,336(sp)
    80000582:	eebe                	sd	a5,344(sp)
    80000584:	f2c2                	sd	a6,352(sp)
    80000586:	f6c6                	sd	a7,360(sp)
    80000588:	1a9c                	add	a5,sp,368
    8000058a:	e03e                	sd	a5,0(sp)
    8000058c:	6782                	ld	a5,0(sp)
    8000058e:	fc878793          	add	a5,a5,-56
    80000592:	ea3e                	sd	a5,272(sp)
    80000594:	6752                	ld	a4,272(sp)
    80000596:	081c                	add	a5,sp,16
    80000598:	863a                	mv	a2,a4
    8000059a:	65a2                	ld	a1,8(sp)
    8000059c:	853e                	mv	a0,a5
    8000059e:	46e000ef          	jal	80000a0c <__vsprintf>
    800005a2:	87aa                	mv	a5,a0
    800005a4:	10f12c23          	sw	a5,280(sp)
    800005a8:	10012e23          	sw	zero,284(sp)
    800005ac:	a005                	j	800005cc <printf+0x58>
    800005ae:	11c12783          	lw	a5,284(sp)
    800005b2:	12078793          	add	a5,a5,288
    800005b6:	978a                	add	a5,a5,sp
    800005b8:	ef07c783          	lbu	a5,-272(a5)
    800005bc:	853e                	mv	a0,a5
    800005be:	c5dff0ef          	jal	8000021a <uart_putc_sync>
    800005c2:	11c12783          	lw	a5,284(sp)
    800005c6:	2785                	addw	a5,a5,1
    800005c8:	10f12e23          	sw	a5,284(sp)
    800005cc:	11c12783          	lw	a5,284(sp)
    800005d0:	873e                	mv	a4,a5
    800005d2:	11812783          	lw	a5,280(sp)
    800005d6:	2701                	sext.w	a4,a4
    800005d8:	2781                	sext.w	a5,a5
    800005da:	fcf74ae3          	blt	a4,a5,800005ae <printf+0x3a>
    800005de:	11812783          	lw	a5,280(sp)
    800005e2:	853e                	mv	a0,a5
    800005e4:	70b2                	ld	ra,296(sp)
    800005e6:	6175                	add	sp,sp,368
    800005e8:	8082                	ret

00000000800005ea <skip_atoi>:
    800005ea:	1101                	add	sp,sp,-32
    800005ec:	e42a                	sd	a0,8(sp)
    800005ee:	ce02                	sw	zero,28(sp)
    800005f0:	a80d                	j	80000622 <skip_atoi+0x38>
    800005f2:	47f2                	lw	a5,28(sp)
    800005f4:	873e                	mv	a4,a5
    800005f6:	87ba                	mv	a5,a4
    800005f8:	0027979b          	sllw	a5,a5,0x2
    800005fc:	9fb9                	addw	a5,a5,a4
    800005fe:	0017979b          	sllw	a5,a5,0x1
    80000602:	0007871b          	sext.w	a4,a5
    80000606:	67a2                	ld	a5,8(sp)
    80000608:	639c                	ld	a5,0(a5)
    8000060a:	00178613          	add	a2,a5,1
    8000060e:	66a2                	ld	a3,8(sp)
    80000610:	e290                	sd	a2,0(a3)
    80000612:	0007c783          	lbu	a5,0(a5)
    80000616:	2781                	sext.w	a5,a5
    80000618:	9fb9                	addw	a5,a5,a4
    8000061a:	2781                	sext.w	a5,a5
    8000061c:	fd07879b          	addw	a5,a5,-48
    80000620:	ce3e                	sw	a5,28(sp)
    80000622:	67a2                	ld	a5,8(sp)
    80000624:	639c                	ld	a5,0(a5)
    80000626:	0007c783          	lbu	a5,0(a5)
    8000062a:	873e                	mv	a4,a5
    8000062c:	02f00793          	li	a5,47
    80000630:	00e7fb63          	bgeu	a5,a4,80000646 <skip_atoi+0x5c>
    80000634:	67a2                	ld	a5,8(sp)
    80000636:	639c                	ld	a5,0(a5)
    80000638:	0007c783          	lbu	a5,0(a5)
    8000063c:	873e                	mv	a4,a5
    8000063e:	03900793          	li	a5,57
    80000642:	fae7f8e3          	bgeu	a5,a4,800005f2 <skip_atoi+0x8>
    80000646:	47f2                	lw	a5,28(sp)
    80000648:	853e                	mv	a0,a5
    8000064a:	6105                	add	sp,sp,32
    8000064c:	8082                	ret

000000008000064e <number>:
    8000064e:	7119                	add	sp,sp,-128
    80000650:	ec2a                	sd	a0,24(sp)
    80000652:	e82e                	sd	a1,16(sp)
    80000654:	85b2                	mv	a1,a2
    80000656:	8636                	mv	a2,a3
    80000658:	86ba                	mv	a3,a4
    8000065a:	873e                	mv	a4,a5
    8000065c:	87ae                	mv	a5,a1
    8000065e:	c63e                	sw	a5,12(sp)
    80000660:	87b2                	mv	a5,a2
    80000662:	c43e                	sw	a5,8(sp)
    80000664:	87b6                	mv	a5,a3
    80000666:	c23e                	sw	a5,4(sp)
    80000668:	87ba                	mv	a5,a4
    8000066a:	c03e                	sw	a5,0(sp)
    8000066c:	0000b797          	auipc	a5,0xb
    80000670:	adc78793          	add	a5,a5,-1316 # 8000b148 <OSDbg_DataSize+0x38>
    80000674:	f8be                	sd	a5,112(sp)
    80000676:	67e2                	ld	a5,24(sp)
    80000678:	ecbe                	sd	a5,88(sp)
    8000067a:	4782                	lw	a5,0(sp)
    8000067c:	0407f793          	and	a5,a5,64
    80000680:	2781                	sext.w	a5,a5
    80000682:	c791                	beqz	a5,8000068e <number+0x40>
    80000684:	0000b797          	auipc	a5,0xb
    80000688:	aec78793          	add	a5,a5,-1300 # 8000b170 <OSDbg_DataSize+0x60>
    8000068c:	f8be                	sd	a5,112(sp)
    8000068e:	4782                	lw	a5,0(sp)
    80000690:	8bc1                	and	a5,a5,16
    80000692:	2781                	sext.w	a5,a5
    80000694:	c781                	beqz	a5,8000069c <number+0x4e>
    80000696:	4782                	lw	a5,0(sp)
    80000698:	9bf9                	and	a5,a5,-2
    8000069a:	c03e                	sw	a5,0(sp)
    8000069c:	47b2                	lw	a5,12(sp)
    8000069e:	0007871b          	sext.w	a4,a5
    800006a2:	4785                	li	a5,1
    800006a4:	00e7d963          	bge	a5,a4,800006b6 <number+0x68>
    800006a8:	47b2                	lw	a5,12(sp)
    800006aa:	0007871b          	sext.w	a4,a5
    800006ae:	02400793          	li	a5,36
    800006b2:	00e7d463          	bge	a5,a4,800006ba <number+0x6c>
    800006b6:	4781                	li	a5,0
    800006b8:	a6b9                	j	80000a06 <number+0x3b8>
    800006ba:	4782                	lw	a5,0(sp)
    800006bc:	8b85                	and	a5,a5,1
    800006be:	2781                	sext.w	a5,a5
    800006c0:	c781                	beqz	a5,800006c8 <number+0x7a>
    800006c2:	03000793          	li	a5,48
    800006c6:	a019                	j	800006cc <number+0x7e>
    800006c8:	02000793          	li	a5,32
    800006cc:	04f10ba3          	sb	a5,87(sp)
    800006d0:	4782                	lw	a5,0(sp)
    800006d2:	0807f793          	and	a5,a5,128
    800006d6:	2781                	sext.w	a5,a5
    800006d8:	c39d                	beqz	a5,800006fe <number+0xb0>
    800006da:	67c2                	ld	a5,16(sp)
    800006dc:	239c                	fld	fa5,0(a5)
    800006de:	f2000753          	fmv.d.x	fa4,zero
    800006e2:	a2e797d3          	flt.d	a5,fa5,fa4
    800006e6:	cf81                	beqz	a5,800006fe <number+0xb0>
    800006e8:	02d00793          	li	a5,45
    800006ec:	06f10fa3          	sb	a5,127(sp)
    800006f0:	67c2                	ld	a5,16(sp)
    800006f2:	239c                	fld	fa5,0(a5)
    800006f4:	22f797d3          	fneg.d	fa5,fa5
    800006f8:	67c2                	ld	a5,16(sp)
    800006fa:	a39c                	fsd	fa5,0(a5)
    800006fc:	a095                	j	80000760 <number+0x112>
    800006fe:	4782                	lw	a5,0(sp)
    80000700:	8b89                	and	a5,a5,2
    80000702:	2781                	sext.w	a5,a5
    80000704:	cb95                	beqz	a5,80000738 <number+0xea>
    80000706:	4782                	lw	a5,0(sp)
    80000708:	0807f793          	and	a5,a5,128
    8000070c:	2781                	sext.w	a5,a5
    8000070e:	e78d                	bnez	a5,80000738 <number+0xea>
    80000710:	67c2                	ld	a5,16(sp)
    80000712:	439c                	lw	a5,0(a5)
    80000714:	2781                	sext.w	a5,a5
    80000716:	0207d163          	bgez	a5,80000738 <number+0xea>
    8000071a:	02d00793          	li	a5,45
    8000071e:	06f10fa3          	sb	a5,127(sp)
    80000722:	67c2                	ld	a5,16(sp)
    80000724:	439c                	lw	a5,0(a5)
    80000726:	2781                	sext.w	a5,a5
    80000728:	40f007bb          	negw	a5,a5
    8000072c:	2781                	sext.w	a5,a5
    8000072e:	0007871b          	sext.w	a4,a5
    80000732:	67c2                	ld	a5,16(sp)
    80000734:	c398                	sw	a4,0(a5)
    80000736:	a02d                	j	80000760 <number+0x112>
    80000738:	4782                	lw	a5,0(sp)
    8000073a:	8b91                	and	a5,a5,4
    8000073c:	2781                	sext.w	a5,a5
    8000073e:	ef89                	bnez	a5,80000758 <number+0x10a>
    80000740:	4782                	lw	a5,0(sp)
    80000742:	0ff7f793          	zext.b	a5,a5
    80000746:	0027979b          	sllw	a5,a5,0x2
    8000074a:	0ff7f793          	zext.b	a5,a5
    8000074e:	0207f793          	and	a5,a5,32
    80000752:	0ff7f793          	zext.b	a5,a5
    80000756:	a019                	j	8000075c <number+0x10e>
    80000758:	02b00793          	li	a5,43
    8000075c:	06f10fa3          	sb	a5,127(sp)
    80000760:	07f14783          	lbu	a5,127(sp)
    80000764:	0ff7f793          	zext.b	a5,a5
    80000768:	c781                	beqz	a5,80000770 <number+0x122>
    8000076a:	47a2                	lw	a5,8(sp)
    8000076c:	37fd                	addw	a5,a5,-1
    8000076e:	c43e                	sw	a5,8(sp)
    80000770:	4782                	lw	a5,0(sp)
    80000772:	0207f793          	and	a5,a5,32
    80000776:	2781                	sext.w	a5,a5
    80000778:	c785                	beqz	a5,800007a0 <number+0x152>
    8000077a:	47b2                	lw	a5,12(sp)
    8000077c:	0007871b          	sext.w	a4,a5
    80000780:	47c1                	li	a5,16
    80000782:	00f71663          	bne	a4,a5,8000078e <number+0x140>
    80000786:	47a2                	lw	a5,8(sp)
    80000788:	37f9                	addw	a5,a5,-2
    8000078a:	c43e                	sw	a5,8(sp)
    8000078c:	a811                	j	800007a0 <number+0x152>
    8000078e:	47b2                	lw	a5,12(sp)
    80000790:	0007871b          	sext.w	a4,a5
    80000794:	47a1                	li	a5,8
    80000796:	00f71563          	bne	a4,a5,800007a0 <number+0x152>
    8000079a:	47a2                	lw	a5,8(sp)
    8000079c:	37fd                	addw	a5,a5,-1
    8000079e:	c43e                	sw	a5,8(sp)
    800007a0:	d682                	sw	zero,108(sp)
    800007a2:	4782                	lw	a5,0(sp)
    800007a4:	0807f793          	and	a5,a5,128
    800007a8:	2781                	sext.w	a5,a5
    800007aa:	cbdd                	beqz	a5,80000860 <number+0x212>
    800007ac:	67c2                	ld	a5,16(sp)
    800007ae:	239c                	fld	fa5,0(a5)
    800007b0:	c21797d3          	fcvt.wu.d	a5,fa5,rtz
    800007b4:	d4be                	sw	a5,104(sp)
    800007b6:	67c2                	ld	a5,16(sp)
    800007b8:	2398                	fld	fa4,0(a5)
    800007ba:	57a6                	lw	a5,104(sp)
    800007bc:	d21787d3          	fcvt.d.wu	fa5,a5
    800007c0:	0af77753          	fsub.d	fa4,fa4,fa5
    800007c4:	0000b797          	auipc	a5,0xb
    800007c8:	a2c78793          	add	a5,a5,-1492 # 8000b1f0 <OSDbg_DataSize+0xe0>
    800007cc:	239c                	fld	fa5,0(a5)
    800007ce:	12f777d3          	fmul.d	fa5,fa4,fa5
    800007d2:	c21797d3          	fcvt.wu.d	a5,fa5,rtz
    800007d6:	d2be                	sw	a5,100(sp)
    800007d8:	47b2                	lw	a5,12(sp)
    800007da:	5716                	lw	a4,100(sp)
    800007dc:	02f777bb          	remuw	a5,a4,a5
    800007e0:	2781                	sext.w	a5,a5
    800007e2:	c8be                	sw	a5,80(sp)
    800007e4:	47b2                	lw	a5,12(sp)
    800007e6:	5716                	lw	a4,100(sp)
    800007e8:	02f757bb          	divuw	a5,a4,a5
    800007ec:	d2be                	sw	a5,100(sp)
    800007ee:	47c6                	lw	a5,80(sp)
    800007f0:	7746                	ld	a4,112(sp)
    800007f2:	973e                	add	a4,a4,a5
    800007f4:	57b6                	lw	a5,108(sp)
    800007f6:	0017869b          	addw	a3,a5,1
    800007fa:	d6b6                	sw	a3,108(sp)
    800007fc:	00074703          	lbu	a4,0(a4)
    80000800:	08078793          	add	a5,a5,128
    80000804:	978a                	add	a5,a5,sp
    80000806:	fae78423          	sb	a4,-88(a5)
    8000080a:	5796                	lw	a5,100(sp)
    8000080c:	2781                	sext.w	a5,a5
    8000080e:	f7e9                	bnez	a5,800007d8 <number+0x18a>
    80000810:	57b6                	lw	a5,108(sp)
    80000812:	0017871b          	addw	a4,a5,1
    80000816:	d6ba                	sw	a4,108(sp)
    80000818:	08078793          	add	a5,a5,128
    8000081c:	978a                	add	a5,a5,sp
    8000081e:	02e00713          	li	a4,46
    80000822:	fae78423          	sb	a4,-88(a5)
    80000826:	47b2                	lw	a5,12(sp)
    80000828:	5726                	lw	a4,104(sp)
    8000082a:	02f777bb          	remuw	a5,a4,a5
    8000082e:	2781                	sext.w	a5,a5
    80000830:	c8be                	sw	a5,80(sp)
    80000832:	47b2                	lw	a5,12(sp)
    80000834:	5726                	lw	a4,104(sp)
    80000836:	02f757bb          	divuw	a5,a4,a5
    8000083a:	d4be                	sw	a5,104(sp)
    8000083c:	47c6                	lw	a5,80(sp)
    8000083e:	7746                	ld	a4,112(sp)
    80000840:	973e                	add	a4,a4,a5
    80000842:	57b6                	lw	a5,108(sp)
    80000844:	0017869b          	addw	a3,a5,1
    80000848:	d6b6                	sw	a3,108(sp)
    8000084a:	00074703          	lbu	a4,0(a4)
    8000084e:	08078793          	add	a5,a5,128
    80000852:	978a                	add	a5,a5,sp
    80000854:	fae78423          	sb	a4,-88(a5)
    80000858:	57a6                	lw	a5,104(sp)
    8000085a:	2781                	sext.w	a5,a5
    8000085c:	f7e9                	bnez	a5,80000826 <number+0x1d8>
    8000085e:	a08d                	j	800008c0 <number+0x272>
    80000860:	67c2                	ld	a5,16(sp)
    80000862:	439c                	lw	a5,0(a5)
    80000864:	ebb9                	bnez	a5,800008ba <number+0x26c>
    80000866:	57b6                	lw	a5,108(sp)
    80000868:	0017871b          	addw	a4,a5,1
    8000086c:	d6ba                	sw	a4,108(sp)
    8000086e:	08078793          	add	a5,a5,128
    80000872:	978a                	add	a5,a5,sp
    80000874:	03000713          	li	a4,48
    80000878:	fae78423          	sb	a4,-88(a5)
    8000087c:	a091                	j	800008c0 <number+0x272>
    8000087e:	67c2                	ld	a5,16(sp)
    80000880:	4398                	lw	a4,0(a5)
    80000882:	47b2                	lw	a5,12(sp)
    80000884:	02f777bb          	remuw	a5,a4,a5
    80000888:	2781                	sext.w	a5,a5
    8000088a:	c8be                	sw	a5,80(sp)
    8000088c:	67c2                	ld	a5,16(sp)
    8000088e:	4398                	lw	a4,0(a5)
    80000890:	47b2                	lw	a5,12(sp)
    80000892:	02f757bb          	divuw	a5,a4,a5
    80000896:	0007871b          	sext.w	a4,a5
    8000089a:	67c2                	ld	a5,16(sp)
    8000089c:	c398                	sw	a4,0(a5)
    8000089e:	47c6                	lw	a5,80(sp)
    800008a0:	7746                	ld	a4,112(sp)
    800008a2:	973e                	add	a4,a4,a5
    800008a4:	57b6                	lw	a5,108(sp)
    800008a6:	0017869b          	addw	a3,a5,1
    800008aa:	d6b6                	sw	a3,108(sp)
    800008ac:	00074703          	lbu	a4,0(a4)
    800008b0:	08078793          	add	a5,a5,128
    800008b4:	978a                	add	a5,a5,sp
    800008b6:	fae78423          	sb	a4,-88(a5)
    800008ba:	67c2                	ld	a5,16(sp)
    800008bc:	439c                	lw	a5,0(a5)
    800008be:	f3e1                	bnez	a5,8000087e <number+0x230>
    800008c0:	57b6                	lw	a5,108(sp)
    800008c2:	873e                	mv	a4,a5
    800008c4:	4792                	lw	a5,4(sp)
    800008c6:	2701                	sext.w	a4,a4
    800008c8:	2781                	sext.w	a5,a5
    800008ca:	00e7d463          	bge	a5,a4,800008d2 <number+0x284>
    800008ce:	57b6                	lw	a5,108(sp)
    800008d0:	c23e                	sw	a5,4(sp)
    800008d2:	47a2                	lw	a5,8(sp)
    800008d4:	873e                	mv	a4,a5
    800008d6:	4792                	lw	a5,4(sp)
    800008d8:	40f707bb          	subw	a5,a4,a5
    800008dc:	c43e                	sw	a5,8(sp)
    800008de:	4782                	lw	a5,0(sp)
    800008e0:	8bc5                	and	a5,a5,17
    800008e2:	2781                	sext.w	a5,a5
    800008e4:	e385                	bnez	a5,80000904 <number+0x2b6>
    800008e6:	a809                	j	800008f8 <number+0x2aa>
    800008e8:	67e2                	ld	a5,24(sp)
    800008ea:	00178713          	add	a4,a5,1
    800008ee:	ec3a                	sd	a4,24(sp)
    800008f0:	02000713          	li	a4,32
    800008f4:	00e78023          	sb	a4,0(a5)
    800008f8:	47a2                	lw	a5,8(sp)
    800008fa:	fff7871b          	addw	a4,a5,-1
    800008fe:	c43a                	sw	a4,8(sp)
    80000900:	fef044e3          	bgtz	a5,800008e8 <number+0x29a>
    80000904:	07f14783          	lbu	a5,127(sp)
    80000908:	0ff7f793          	zext.b	a5,a5
    8000090c:	cb89                	beqz	a5,8000091e <number+0x2d0>
    8000090e:	67e2                	ld	a5,24(sp)
    80000910:	00178713          	add	a4,a5,1
    80000914:	ec3a                	sd	a4,24(sp)
    80000916:	07f14703          	lbu	a4,127(sp)
    8000091a:	00e78023          	sb	a4,0(a5)
    8000091e:	4782                	lw	a5,0(sp)
    80000920:	0207f793          	and	a5,a5,32
    80000924:	2781                	sext.w	a5,a5
    80000926:	cba9                	beqz	a5,80000978 <number+0x32a>
    80000928:	47b2                	lw	a5,12(sp)
    8000092a:	0007871b          	sext.w	a4,a5
    8000092e:	47a1                	li	a5,8
    80000930:	00f71b63          	bne	a4,a5,80000946 <number+0x2f8>
    80000934:	67e2                	ld	a5,24(sp)
    80000936:	00178713          	add	a4,a5,1
    8000093a:	ec3a                	sd	a4,24(sp)
    8000093c:	03000713          	li	a4,48
    80000940:	00e78023          	sb	a4,0(a5)
    80000944:	a815                	j	80000978 <number+0x32a>
    80000946:	47b2                	lw	a5,12(sp)
    80000948:	0007871b          	sext.w	a4,a5
    8000094c:	47c1                	li	a5,16
    8000094e:	02f71563          	bne	a4,a5,80000978 <number+0x32a>
    80000952:	67e2                	ld	a5,24(sp)
    80000954:	00178713          	add	a4,a5,1
    80000958:	ec3a                	sd	a4,24(sp)
    8000095a:	03000713          	li	a4,48
    8000095e:	00e78023          	sb	a4,0(a5)
    80000962:	77c6                	ld	a5,112(sp)
    80000964:	02178713          	add	a4,a5,33
    80000968:	67e2                	ld	a5,24(sp)
    8000096a:	00178693          	add	a3,a5,1
    8000096e:	ec36                	sd	a3,24(sp)
    80000970:	00074703          	lbu	a4,0(a4)
    80000974:	00e78023          	sb	a4,0(a5)
    80000978:	4782                	lw	a5,0(sp)
    8000097a:	8bc1                	and	a5,a5,16
    8000097c:	2781                	sext.w	a5,a5
    8000097e:	eb8d                	bnez	a5,800009b0 <number+0x362>
    80000980:	a809                	j	80000992 <number+0x344>
    80000982:	67e2                	ld	a5,24(sp)
    80000984:	00178713          	add	a4,a5,1
    80000988:	ec3a                	sd	a4,24(sp)
    8000098a:	05714703          	lbu	a4,87(sp)
    8000098e:	00e78023          	sb	a4,0(a5)
    80000992:	47a2                	lw	a5,8(sp)
    80000994:	fff7871b          	addw	a4,a5,-1
    80000998:	c43a                	sw	a4,8(sp)
    8000099a:	fef044e3          	bgtz	a5,80000982 <number+0x334>
    8000099e:	a809                	j	800009b0 <number+0x362>
    800009a0:	67e2                	ld	a5,24(sp)
    800009a2:	00178713          	add	a4,a5,1
    800009a6:	ec3a                	sd	a4,24(sp)
    800009a8:	03000713          	li	a4,48
    800009ac:	00e78023          	sb	a4,0(a5)
    800009b0:	4792                	lw	a5,4(sp)
    800009b2:	fff7871b          	addw	a4,a5,-1
    800009b6:	c23a                	sw	a4,4(sp)
    800009b8:	5736                	lw	a4,108(sp)
    800009ba:	2701                	sext.w	a4,a4
    800009bc:	fef742e3          	blt	a4,a5,800009a0 <number+0x352>
    800009c0:	a829                	j	800009da <number+0x38c>
    800009c2:	67e2                	ld	a5,24(sp)
    800009c4:	00178713          	add	a4,a5,1
    800009c8:	ec3a                	sd	a4,24(sp)
    800009ca:	5736                	lw	a4,108(sp)
    800009cc:	08070713          	add	a4,a4,128
    800009d0:	970a                	add	a4,a4,sp
    800009d2:	fa874703          	lbu	a4,-88(a4)
    800009d6:	00e78023          	sb	a4,0(a5)
    800009da:	57b6                	lw	a5,108(sp)
    800009dc:	fff7871b          	addw	a4,a5,-1
    800009e0:	d6ba                	sw	a4,108(sp)
    800009e2:	fef040e3          	bgtz	a5,800009c2 <number+0x374>
    800009e6:	a809                	j	800009f8 <number+0x3aa>
    800009e8:	67e2                	ld	a5,24(sp)
    800009ea:	00178713          	add	a4,a5,1
    800009ee:	ec3a                	sd	a4,24(sp)
    800009f0:	02000713          	li	a4,32
    800009f4:	00e78023          	sb	a4,0(a5)
    800009f8:	47a2                	lw	a5,8(sp)
    800009fa:	fff7871b          	addw	a4,a5,-1
    800009fe:	c43a                	sw	a4,8(sp)
    80000a00:	fef044e3          	bgtz	a5,800009e8 <number+0x39a>
    80000a04:	67e2                	ld	a5,24(sp)
    80000a06:	853e                	mv	a0,a5
    80000a08:	6109                	add	sp,sp,128
    80000a0a:	8082                	ret

0000000080000a0c <__vsprintf>:
    80000a0c:	7159                	add	sp,sp,-112
    80000a0e:	f486                	sd	ra,104(sp)
    80000a10:	ec2a                	sd	a0,24(sp)
    80000a12:	e82e                	sd	a1,16(sp)
    80000a14:	e432                	sd	a2,8(sp)
    80000a16:	67e2                	ld	a5,24(sp)
    80000a18:	e8be                	sd	a5,80(sp)
    80000a1a:	a9a1                	j	80000e72 <__vsprintf+0x466>
    80000a1c:	67c2                	ld	a5,16(sp)
    80000a1e:	0007c783          	lbu	a5,0(a5)
    80000a22:	873e                	mv	a4,a5
    80000a24:	02500793          	li	a5,37
    80000a28:	00f70c63          	beq	a4,a5,80000a40 <__vsprintf+0x34>
    80000a2c:	6742                	ld	a4,16(sp)
    80000a2e:	67c6                	ld	a5,80(sp)
    80000a30:	00178693          	add	a3,a5,1
    80000a34:	e8b6                	sd	a3,80(sp)
    80000a36:	00074703          	lbu	a4,0(a4)
    80000a3a:	00e78023          	sb	a4,0(a5)
    80000a3e:	a13d                	j	80000e6c <__vsprintf+0x460>
    80000a40:	c282                	sw	zero,68(sp)
    80000a42:	67c2                	ld	a5,16(sp)
    80000a44:	0785                	add	a5,a5,1
    80000a46:	e83e                	sd	a5,16(sp)
    80000a48:	67c2                	ld	a5,16(sp)
    80000a4a:	0007c783          	lbu	a5,0(a5)
    80000a4e:	2781                	sext.w	a5,a5
    80000a50:	fe07869b          	addw	a3,a5,-32
    80000a54:	0006871b          	sext.w	a4,a3
    80000a58:	47c1                	li	a5,16
    80000a5a:	04e7ee63          	bltu	a5,a4,80000ab6 <__vsprintf+0xaa>
    80000a5e:	02069793          	sll	a5,a3,0x20
    80000a62:	9381                	srl	a5,a5,0x20
    80000a64:	00279713          	sll	a4,a5,0x2
    80000a68:	0000a797          	auipc	a5,0xa
    80000a6c:	79078793          	add	a5,a5,1936 # 8000b1f8 <OSDbg_DataSize+0xe8>
    80000a70:	97ba                	add	a5,a5,a4
    80000a72:	439c                	lw	a5,0(a5)
    80000a74:	0007871b          	sext.w	a4,a5
    80000a78:	0000a797          	auipc	a5,0xa
    80000a7c:	78078793          	add	a5,a5,1920 # 8000b1f8 <OSDbg_DataSize+0xe8>
    80000a80:	97ba                	add	a5,a5,a4
    80000a82:	8782                	jr	a5
    80000a84:	4796                	lw	a5,68(sp)
    80000a86:	0107e793          	or	a5,a5,16
    80000a8a:	c2be                	sw	a5,68(sp)
    80000a8c:	bf5d                	j	80000a42 <__vsprintf+0x36>
    80000a8e:	4796                	lw	a5,68(sp)
    80000a90:	0047e793          	or	a5,a5,4
    80000a94:	c2be                	sw	a5,68(sp)
    80000a96:	b775                	j	80000a42 <__vsprintf+0x36>
    80000a98:	4796                	lw	a5,68(sp)
    80000a9a:	0087e793          	or	a5,a5,8
    80000a9e:	c2be                	sw	a5,68(sp)
    80000aa0:	b74d                	j	80000a42 <__vsprintf+0x36>
    80000aa2:	4796                	lw	a5,68(sp)
    80000aa4:	0207e793          	or	a5,a5,32
    80000aa8:	c2be                	sw	a5,68(sp)
    80000aaa:	bf61                	j	80000a42 <__vsprintf+0x36>
    80000aac:	4796                	lw	a5,68(sp)
    80000aae:	0017e793          	or	a5,a5,1
    80000ab2:	c2be                	sw	a5,68(sp)
    80000ab4:	b779                	j	80000a42 <__vsprintf+0x36>
    80000ab6:	57fd                	li	a5,-1
    80000ab8:	c0be                	sw	a5,64(sp)
    80000aba:	67c2                	ld	a5,16(sp)
    80000abc:	0007c783          	lbu	a5,0(a5)
    80000ac0:	873e                	mv	a4,a5
    80000ac2:	02f00793          	li	a5,47
    80000ac6:	02e7f163          	bgeu	a5,a4,80000ae8 <__vsprintf+0xdc>
    80000aca:	67c2                	ld	a5,16(sp)
    80000acc:	0007c783          	lbu	a5,0(a5)
    80000ad0:	873e                	mv	a4,a5
    80000ad2:	03900793          	li	a5,57
    80000ad6:	00e7e963          	bltu	a5,a4,80000ae8 <__vsprintf+0xdc>
    80000ada:	081c                	add	a5,sp,16
    80000adc:	853e                	mv	a0,a5
    80000ade:	b0dff0ef          	jal	800005ea <skip_atoi>
    80000ae2:	87aa                	mv	a5,a0
    80000ae4:	c0be                	sw	a5,64(sp)
    80000ae6:	a835                	j	80000b22 <__vsprintf+0x116>
    80000ae8:	67c2                	ld	a5,16(sp)
    80000aea:	0007c783          	lbu	a5,0(a5)
    80000aee:	873e                	mv	a4,a5
    80000af0:	02a00793          	li	a5,42
    80000af4:	02f71763          	bne	a4,a5,80000b22 <__vsprintf+0x116>
    80000af8:	67c2                	ld	a5,16(sp)
    80000afa:	0785                	add	a5,a5,1
    80000afc:	e83e                	sd	a5,16(sp)
    80000afe:	67a2                	ld	a5,8(sp)
    80000b00:	00878713          	add	a4,a5,8
    80000b04:	e43a                	sd	a4,8(sp)
    80000b06:	439c                	lw	a5,0(a5)
    80000b08:	c0be                	sw	a5,64(sp)
    80000b0a:	4786                	lw	a5,64(sp)
    80000b0c:	2781                	sext.w	a5,a5
    80000b0e:	0007da63          	bgez	a5,80000b22 <__vsprintf+0x116>
    80000b12:	4786                	lw	a5,64(sp)
    80000b14:	40f007bb          	negw	a5,a5
    80000b18:	c0be                	sw	a5,64(sp)
    80000b1a:	4796                	lw	a5,68(sp)
    80000b1c:	0107e793          	or	a5,a5,16
    80000b20:	c2be                	sw	a5,68(sp)
    80000b22:	57fd                	li	a5,-1
    80000b24:	de3e                	sw	a5,60(sp)
    80000b26:	67c2                	ld	a5,16(sp)
    80000b28:	0007c783          	lbu	a5,0(a5)
    80000b2c:	873e                	mv	a4,a5
    80000b2e:	02e00793          	li	a5,46
    80000b32:	04f71f63          	bne	a4,a5,80000b90 <__vsprintf+0x184>
    80000b36:	67c2                	ld	a5,16(sp)
    80000b38:	0785                	add	a5,a5,1
    80000b3a:	e83e                	sd	a5,16(sp)
    80000b3c:	67c2                	ld	a5,16(sp)
    80000b3e:	0007c783          	lbu	a5,0(a5)
    80000b42:	873e                	mv	a4,a5
    80000b44:	02f00793          	li	a5,47
    80000b48:	02e7f163          	bgeu	a5,a4,80000b6a <__vsprintf+0x15e>
    80000b4c:	67c2                	ld	a5,16(sp)
    80000b4e:	0007c783          	lbu	a5,0(a5)
    80000b52:	873e                	mv	a4,a5
    80000b54:	03900793          	li	a5,57
    80000b58:	00e7e963          	bltu	a5,a4,80000b6a <__vsprintf+0x15e>
    80000b5c:	081c                	add	a5,sp,16
    80000b5e:	853e                	mv	a0,a5
    80000b60:	a8bff0ef          	jal	800005ea <skip_atoi>
    80000b64:	87aa                	mv	a5,a0
    80000b66:	de3e                	sw	a5,60(sp)
    80000b68:	a839                	j	80000b86 <__vsprintf+0x17a>
    80000b6a:	67c2                	ld	a5,16(sp)
    80000b6c:	0007c783          	lbu	a5,0(a5)
    80000b70:	873e                	mv	a4,a5
    80000b72:	02a00793          	li	a5,42
    80000b76:	00f71863          	bne	a4,a5,80000b86 <__vsprintf+0x17a>
    80000b7a:	67a2                	ld	a5,8(sp)
    80000b7c:	00878713          	add	a4,a5,8
    80000b80:	e43a                	sd	a4,8(sp)
    80000b82:	439c                	lw	a5,0(a5)
    80000b84:	de3e                	sw	a5,60(sp)
    80000b86:	57f2                	lw	a5,60(sp)
    80000b88:	2781                	sext.w	a5,a5
    80000b8a:	0007d363          	bgez	a5,80000b90 <__vsprintf+0x184>
    80000b8e:	de02                	sw	zero,60(sp)
    80000b90:	57fd                	li	a5,-1
    80000b92:	dc3e                	sw	a5,56(sp)
    80000b94:	67c2                	ld	a5,16(sp)
    80000b96:	0007c783          	lbu	a5,0(a5)
    80000b9a:	873e                	mv	a4,a5
    80000b9c:	06800793          	li	a5,104
    80000ba0:	02f70263          	beq	a4,a5,80000bc4 <__vsprintf+0x1b8>
    80000ba4:	67c2                	ld	a5,16(sp)
    80000ba6:	0007c783          	lbu	a5,0(a5)
    80000baa:	873e                	mv	a4,a5
    80000bac:	06c00793          	li	a5,108
    80000bb0:	00f70a63          	beq	a4,a5,80000bc4 <__vsprintf+0x1b8>
    80000bb4:	67c2                	ld	a5,16(sp)
    80000bb6:	0007c783          	lbu	a5,0(a5)
    80000bba:	873e                	mv	a4,a5
    80000bbc:	04c00793          	li	a5,76
    80000bc0:	00f71963          	bne	a4,a5,80000bd2 <__vsprintf+0x1c6>
    80000bc4:	67c2                	ld	a5,16(sp)
    80000bc6:	0007c783          	lbu	a5,0(a5)
    80000bca:	dc3e                	sw	a5,56(sp)
    80000bcc:	67c2                	ld	a5,16(sp)
    80000bce:	0785                	add	a5,a5,1
    80000bd0:	e83e                	sd	a5,16(sp)
    80000bd2:	67c2                	ld	a5,16(sp)
    80000bd4:	0007c783          	lbu	a5,0(a5)
    80000bd8:	2781                	sext.w	a5,a5
    80000bda:	fa87869b          	addw	a3,a5,-88
    80000bde:	0006871b          	sext.w	a4,a3
    80000be2:	02000793          	li	a5,32
    80000be6:	24e7e163          	bltu	a5,a4,80000e28 <__vsprintf+0x41c>
    80000bea:	02069793          	sll	a5,a3,0x20
    80000bee:	9381                	srl	a5,a5,0x20
    80000bf0:	00279713          	sll	a4,a5,0x2
    80000bf4:	0000a797          	auipc	a5,0xa
    80000bf8:	64878793          	add	a5,a5,1608 # 8000b23c <OSDbg_DataSize+0x12c>
    80000bfc:	97ba                	add	a5,a5,a4
    80000bfe:	439c                	lw	a5,0(a5)
    80000c00:	0007871b          	sext.w	a4,a5
    80000c04:	0000a797          	auipc	a5,0xa
    80000c08:	63878793          	add	a5,a5,1592 # 8000b23c <OSDbg_DataSize+0x12c>
    80000c0c:	97ba                	add	a5,a5,a4
    80000c0e:	8782                	jr	a5
    80000c10:	4796                	lw	a5,68(sp)
    80000c12:	8bc1                	and	a5,a5,16
    80000c14:	2781                	sext.w	a5,a5
    80000c16:	e38d                	bnez	a5,80000c38 <__vsprintf+0x22c>
    80000c18:	a809                	j	80000c2a <__vsprintf+0x21e>
    80000c1a:	67c6                	ld	a5,80(sp)
    80000c1c:	00178713          	add	a4,a5,1
    80000c20:	e8ba                	sd	a4,80(sp)
    80000c22:	02000713          	li	a4,32
    80000c26:	00e78023          	sb	a4,0(a5)
    80000c2a:	4786                	lw	a5,64(sp)
    80000c2c:	37fd                	addw	a5,a5,-1
    80000c2e:	c0be                	sw	a5,64(sp)
    80000c30:	4786                	lw	a5,64(sp)
    80000c32:	2781                	sext.w	a5,a5
    80000c34:	fef043e3          	bgtz	a5,80000c1a <__vsprintf+0x20e>
    80000c38:	67a2                	ld	a5,8(sp)
    80000c3a:	00878713          	add	a4,a5,8
    80000c3e:	e43a                	sd	a4,8(sp)
    80000c40:	4394                	lw	a3,0(a5)
    80000c42:	67c6                	ld	a5,80(sp)
    80000c44:	00178713          	add	a4,a5,1
    80000c48:	e8ba                	sd	a4,80(sp)
    80000c4a:	0ff6f713          	zext.b	a4,a3
    80000c4e:	00e78023          	sb	a4,0(a5)
    80000c52:	a809                	j	80000c64 <__vsprintf+0x258>
    80000c54:	67c6                	ld	a5,80(sp)
    80000c56:	00178713          	add	a4,a5,1
    80000c5a:	e8ba                	sd	a4,80(sp)
    80000c5c:	02000713          	li	a4,32
    80000c60:	00e78023          	sb	a4,0(a5)
    80000c64:	4786                	lw	a5,64(sp)
    80000c66:	37fd                	addw	a5,a5,-1
    80000c68:	c0be                	sw	a5,64(sp)
    80000c6a:	4786                	lw	a5,64(sp)
    80000c6c:	2781                	sext.w	a5,a5
    80000c6e:	fef043e3          	bgtz	a5,80000c54 <__vsprintf+0x248>
    80000c72:	aaed                	j	80000e6c <__vsprintf+0x460>
    80000c74:	67a2                	ld	a5,8(sp)
    80000c76:	00878713          	add	a4,a5,8
    80000c7a:	e43a                	sd	a4,8(sp)
    80000c7c:	639c                	ld	a5,0(a5)
    80000c7e:	e4be                	sd	a5,72(sp)
    80000c80:	6526                	ld	a0,72(sp)
    80000c82:	dd4ff0ef          	jal	80000256 <strlen>
    80000c86:	87aa                	mv	a5,a0
    80000c88:	2781                	sext.w	a5,a5
    80000c8a:	cebe                	sw	a5,92(sp)
    80000c8c:	57f2                	lw	a5,60(sp)
    80000c8e:	2781                	sext.w	a5,a5
    80000c90:	0007d563          	bgez	a5,80000c9a <__vsprintf+0x28e>
    80000c94:	47f6                	lw	a5,92(sp)
    80000c96:	de3e                	sw	a5,60(sp)
    80000c98:	a811                	j	80000cac <__vsprintf+0x2a0>
    80000c9a:	47f6                	lw	a5,92(sp)
    80000c9c:	873e                	mv	a4,a5
    80000c9e:	57f2                	lw	a5,60(sp)
    80000ca0:	2701                	sext.w	a4,a4
    80000ca2:	2781                	sext.w	a5,a5
    80000ca4:	00e7d463          	bge	a5,a4,80000cac <__vsprintf+0x2a0>
    80000ca8:	57f2                	lw	a5,60(sp)
    80000caa:	cebe                	sw	a5,92(sp)
    80000cac:	4796                	lw	a5,68(sp)
    80000cae:	8bc1                	and	a5,a5,16
    80000cb0:	2781                	sext.w	a5,a5
    80000cb2:	e395                	bnez	a5,80000cd6 <__vsprintf+0x2ca>
    80000cb4:	a809                	j	80000cc6 <__vsprintf+0x2ba>
    80000cb6:	67c6                	ld	a5,80(sp)
    80000cb8:	00178713          	add	a4,a5,1
    80000cbc:	e8ba                	sd	a4,80(sp)
    80000cbe:	02000713          	li	a4,32
    80000cc2:	00e78023          	sb	a4,0(a5)
    80000cc6:	4786                	lw	a5,64(sp)
    80000cc8:	fff7871b          	addw	a4,a5,-1
    80000ccc:	c0ba                	sw	a4,64(sp)
    80000cce:	4776                	lw	a4,92(sp)
    80000cd0:	2701                	sext.w	a4,a4
    80000cd2:	fef742e3          	blt	a4,a5,80000cb6 <__vsprintf+0x2aa>
    80000cd6:	cc82                	sw	zero,88(sp)
    80000cd8:	a005                	j	80000cf8 <__vsprintf+0x2ec>
    80000cda:	6726                	ld	a4,72(sp)
    80000cdc:	00170793          	add	a5,a4,1
    80000ce0:	e4be                	sd	a5,72(sp)
    80000ce2:	67c6                	ld	a5,80(sp)
    80000ce4:	00178693          	add	a3,a5,1
    80000ce8:	e8b6                	sd	a3,80(sp)
    80000cea:	00074703          	lbu	a4,0(a4)
    80000cee:	00e78023          	sb	a4,0(a5)
    80000cf2:	47e6                	lw	a5,88(sp)
    80000cf4:	2785                	addw	a5,a5,1
    80000cf6:	ccbe                	sw	a5,88(sp)
    80000cf8:	47e6                	lw	a5,88(sp)
    80000cfa:	873e                	mv	a4,a5
    80000cfc:	47f6                	lw	a5,92(sp)
    80000cfe:	2701                	sext.w	a4,a4
    80000d00:	2781                	sext.w	a5,a5
    80000d02:	fcf74ce3          	blt	a4,a5,80000cda <__vsprintf+0x2ce>
    80000d06:	a809                	j	80000d18 <__vsprintf+0x30c>
    80000d08:	67c6                	ld	a5,80(sp)
    80000d0a:	00178713          	add	a4,a5,1
    80000d0e:	e8ba                	sd	a4,80(sp)
    80000d10:	02000713          	li	a4,32
    80000d14:	00e78023          	sb	a4,0(a5)
    80000d18:	4786                	lw	a5,64(sp)
    80000d1a:	fff7871b          	addw	a4,a5,-1
    80000d1e:	c0ba                	sw	a4,64(sp)
    80000d20:	4776                	lw	a4,92(sp)
    80000d22:	2701                	sext.w	a4,a4
    80000d24:	fef742e3          	blt	a4,a5,80000d08 <__vsprintf+0x2fc>
    80000d28:	a291                	j	80000e6c <__vsprintf+0x460>
    80000d2a:	67a2                	ld	a5,8(sp)
    80000d2c:	00878713          	add	a4,a5,8
    80000d30:	e43a                	sd	a4,8(sp)
    80000d32:	639c                	ld	a5,0(a5)
    80000d34:	2781                	sext.w	a5,a5
    80000d36:	d63e                	sw	a5,44(sp)
    80000d38:	4796                	lw	a5,68(sp)
    80000d3a:	5772                	lw	a4,60(sp)
    80000d3c:	4686                	lw	a3,64(sp)
    80000d3e:	106c                	add	a1,sp,44
    80000d40:	4621                	li	a2,8
    80000d42:	6546                	ld	a0,80(sp)
    80000d44:	90bff0ef          	jal	8000064e <number>
    80000d48:	e8aa                	sd	a0,80(sp)
    80000d4a:	a20d                	j	80000e6c <__vsprintf+0x460>
    80000d4c:	4786                	lw	a5,64(sp)
    80000d4e:	0007871b          	sext.w	a4,a5
    80000d52:	57fd                	li	a5,-1
    80000d54:	00f71863          	bne	a4,a5,80000d64 <__vsprintf+0x358>
    80000d58:	47a1                	li	a5,8
    80000d5a:	c0be                	sw	a5,64(sp)
    80000d5c:	4796                	lw	a5,68(sp)
    80000d5e:	0017e793          	or	a5,a5,1
    80000d62:	c2be                	sw	a5,68(sp)
    80000d64:	67a2                	ld	a5,8(sp)
    80000d66:	00878713          	add	a4,a5,8
    80000d6a:	e43a                	sd	a4,8(sp)
    80000d6c:	639c                	ld	a5,0(a5)
    80000d6e:	2781                	sext.w	a5,a5
    80000d70:	d63e                	sw	a5,44(sp)
    80000d72:	4796                	lw	a5,68(sp)
    80000d74:	5772                	lw	a4,60(sp)
    80000d76:	4686                	lw	a3,64(sp)
    80000d78:	106c                	add	a1,sp,44
    80000d7a:	4641                	li	a2,16
    80000d7c:	6546                	ld	a0,80(sp)
    80000d7e:	8d1ff0ef          	jal	8000064e <number>
    80000d82:	e8aa                	sd	a0,80(sp)
    80000d84:	a0e5                	j	80000e6c <__vsprintf+0x460>
    80000d86:	4796                	lw	a5,68(sp)
    80000d88:	0407e793          	or	a5,a5,64
    80000d8c:	c2be                	sw	a5,68(sp)
    80000d8e:	67a2                	ld	a5,8(sp)
    80000d90:	00878713          	add	a4,a5,8
    80000d94:	e43a                	sd	a4,8(sp)
    80000d96:	639c                	ld	a5,0(a5)
    80000d98:	2781                	sext.w	a5,a5
    80000d9a:	d63e                	sw	a5,44(sp)
    80000d9c:	4796                	lw	a5,68(sp)
    80000d9e:	5772                	lw	a4,60(sp)
    80000da0:	4686                	lw	a3,64(sp)
    80000da2:	106c                	add	a1,sp,44
    80000da4:	4641                	li	a2,16
    80000da6:	6546                	ld	a0,80(sp)
    80000da8:	8a7ff0ef          	jal	8000064e <number>
    80000dac:	e8aa                	sd	a0,80(sp)
    80000dae:	a87d                	j	80000e6c <__vsprintf+0x460>
    80000db0:	4796                	lw	a5,68(sp)
    80000db2:	0027e793          	or	a5,a5,2
    80000db6:	c2be                	sw	a5,68(sp)
    80000db8:	67a2                	ld	a5,8(sp)
    80000dba:	00878713          	add	a4,a5,8
    80000dbe:	e43a                	sd	a4,8(sp)
    80000dc0:	639c                	ld	a5,0(a5)
    80000dc2:	2781                	sext.w	a5,a5
    80000dc4:	d63e                	sw	a5,44(sp)
    80000dc6:	4796                	lw	a5,68(sp)
    80000dc8:	5772                	lw	a4,60(sp)
    80000dca:	4686                	lw	a3,64(sp)
    80000dcc:	106c                	add	a1,sp,44
    80000dce:	4629                	li	a2,10
    80000dd0:	6546                	ld	a0,80(sp)
    80000dd2:	87dff0ef          	jal	8000064e <number>
    80000dd6:	e8aa                	sd	a0,80(sp)
    80000dd8:	a851                	j	80000e6c <__vsprintf+0x460>
    80000dda:	67a2                	ld	a5,8(sp)
    80000ddc:	00878713          	add	a4,a5,8
    80000de0:	e43a                	sd	a4,8(sp)
    80000de2:	639c                	ld	a5,0(a5)
    80000de4:	f83e                	sd	a5,48(sp)
    80000de6:	6746                	ld	a4,80(sp)
    80000de8:	67e2                	ld	a5,24(sp)
    80000dea:	40f707b3          	sub	a5,a4,a5
    80000dee:	0007871b          	sext.w	a4,a5
    80000df2:	77c2                	ld	a5,48(sp)
    80000df4:	c398                	sw	a4,0(a5)
    80000df6:	a89d                	j	80000e6c <__vsprintf+0x460>
    80000df8:	4796                	lw	a5,68(sp)
    80000dfa:	0027e793          	or	a5,a5,2
    80000dfe:	c2be                	sw	a5,68(sp)
    80000e00:	4796                	lw	a5,68(sp)
    80000e02:	0807e793          	or	a5,a5,128
    80000e06:	c2be                	sw	a5,68(sp)
    80000e08:	67a2                	ld	a5,8(sp)
    80000e0a:	00878713          	add	a4,a5,8
    80000e0e:	e43a                	sd	a4,8(sp)
    80000e10:	239c                	fld	fa5,0(a5)
    80000e12:	b03e                	fsd	fa5,32(sp)
    80000e14:	4796                	lw	a5,68(sp)
    80000e16:	5772                	lw	a4,60(sp)
    80000e18:	4686                	lw	a3,64(sp)
    80000e1a:	100c                	add	a1,sp,32
    80000e1c:	4629                	li	a2,10
    80000e1e:	6546                	ld	a0,80(sp)
    80000e20:	82fff0ef          	jal	8000064e <number>
    80000e24:	e8aa                	sd	a0,80(sp)
    80000e26:	a099                	j	80000e6c <__vsprintf+0x460>
    80000e28:	67c2                	ld	a5,16(sp)
    80000e2a:	0007c783          	lbu	a5,0(a5)
    80000e2e:	873e                	mv	a4,a5
    80000e30:	02500793          	li	a5,37
    80000e34:	00f70a63          	beq	a4,a5,80000e48 <__vsprintf+0x43c>
    80000e38:	67c6                	ld	a5,80(sp)
    80000e3a:	00178713          	add	a4,a5,1
    80000e3e:	e8ba                	sd	a4,80(sp)
    80000e40:	02500713          	li	a4,37
    80000e44:	00e78023          	sb	a4,0(a5)
    80000e48:	67c2                	ld	a5,16(sp)
    80000e4a:	0007c783          	lbu	a5,0(a5)
    80000e4e:	cb99                	beqz	a5,80000e64 <__vsprintf+0x458>
    80000e50:	6742                	ld	a4,16(sp)
    80000e52:	67c6                	ld	a5,80(sp)
    80000e54:	00178693          	add	a3,a5,1
    80000e58:	e8b6                	sd	a3,80(sp)
    80000e5a:	00074703          	lbu	a4,0(a4)
    80000e5e:	00e78023          	sb	a4,0(a5)
    80000e62:	a021                	j	80000e6a <__vsprintf+0x45e>
    80000e64:	67c2                	ld	a5,16(sp)
    80000e66:	17fd                	add	a5,a5,-1
    80000e68:	e83e                	sd	a5,16(sp)
    80000e6a:	0001                	nop
    80000e6c:	67c2                	ld	a5,16(sp)
    80000e6e:	0785                	add	a5,a5,1
    80000e70:	e83e                	sd	a5,16(sp)
    80000e72:	67c2                	ld	a5,16(sp)
    80000e74:	0007c783          	lbu	a5,0(a5)
    80000e78:	ba0792e3          	bnez	a5,80000a1c <__vsprintf+0x10>
    80000e7c:	67c6                	ld	a5,80(sp)
    80000e7e:	00078023          	sb	zero,0(a5)
    80000e82:	6746                	ld	a4,80(sp)
    80000e84:	67e2                	ld	a5,24(sp)
    80000e86:	40f707b3          	sub	a5,a4,a5
    80000e8a:	ccbe                	sw	a5,88(sp)
    80000e8c:	47e6                	lw	a5,88(sp)
    80000e8e:	853e                	mv	a0,a5
    80000e90:	70a6                	ld	ra,104(sp)
    80000e92:	6165                	add	sp,sp,112
    80000e94:	8082                	ret

0000000080000e96 <sprintf>:
    80000e96:	7149                	add	sp,sp,-368
    80000e98:	fe06                	sd	ra,312(sp)
    80000e9a:	ec2a                	sd	a0,24(sp)
    80000e9c:	e82e                	sd	a1,16(sp)
    80000e9e:	e2b2                	sd	a2,320(sp)
    80000ea0:	e6b6                	sd	a3,328(sp)
    80000ea2:	eaba                	sd	a4,336(sp)
    80000ea4:	eebe                	sd	a5,344(sp)
    80000ea6:	f2c2                	sd	a6,352(sp)
    80000ea8:	f6c6                	sd	a7,360(sp)
    80000eaa:	1a9c                	add	a5,sp,368
    80000eac:	e43e                	sd	a5,8(sp)
    80000eae:	67a2                	ld	a5,8(sp)
    80000eb0:	fd078793          	add	a5,a5,-48
    80000eb4:	f23e                	sd	a5,288(sp)
    80000eb6:	7712                	ld	a4,288(sp)
    80000eb8:	101c                	add	a5,sp,32
    80000eba:	863a                	mv	a2,a4
    80000ebc:	65c2                	ld	a1,16(sp)
    80000ebe:	853e                	mv	a0,a5
    80000ec0:	b4dff0ef          	jal	80000a0c <__vsprintf>
    80000ec4:	87aa                	mv	a5,a0
    80000ec6:	12f12623          	sw	a5,300(sp)
    80000eca:	12c12783          	lw	a5,300(sp)
    80000ece:	853e                	mv	a0,a5
    80000ed0:	70f2                	ld	ra,312(sp)
    80000ed2:	6175                	add	sp,sp,368
    80000ed4:	8082                	ret

0000000080000ed6 <panic>:
    80000ed6:	1101                	add	sp,sp,-32
    80000ed8:	ec06                	sd	ra,24(sp)
    80000eda:	e42a                	sd	a0,8(sp)
    80000edc:	1f8000ef          	jal	800010d4 <w_int_off>
    80000ee0:	65a2                	ld	a1,8(sp)
    80000ee2:	0000a517          	auipc	a0,0xa
    80000ee6:	2b650513          	add	a0,a0,694 # 8000b198 <OSDbg_DataSize+0x88>
    80000eea:	e8aff0ef          	jal	80000574 <printf>
    80000eee:	0001                	nop
    80000ef0:	bffd                	j	80000eee <panic+0x18>

0000000080000ef2 <assert_fail>:
    80000ef2:	1101                	add	sp,sp,-32
    80000ef4:	ec06                	sd	ra,24(sp)
    80000ef6:	e42a                	sd	a0,8(sp)
    80000ef8:	87ae                	mv	a5,a1
    80000efa:	c23e                	sw	a5,4(sp)
    80000efc:	0000a517          	auipc	a0,0xa
    80000f00:	2b450513          	add	a0,a0,692 # 8000b1b0 <OSDbg_DataSize+0xa0>
    80000f04:	e70ff0ef          	jal	80000574 <printf>
    80000f08:	65a2                	ld	a1,8(sp)
    80000f0a:	0000a517          	auipc	a0,0xa
    80000f0e:	2b650513          	add	a0,a0,694 # 8000b1c0 <OSDbg_DataSize+0xb0>
    80000f12:	e62ff0ef          	jal	80000574 <printf>
    80000f16:	4792                	lw	a5,4(sp)
    80000f18:	85be                	mv	a1,a5
    80000f1a:	0000a517          	auipc	a0,0xa
    80000f1e:	2b650513          	add	a0,a0,694 # 8000b1d0 <OSDbg_DataSize+0xc0>
    80000f22:	e52ff0ef          	jal	80000574 <printf>
    80000f26:	0000a517          	auipc	a0,0xa
    80000f2a:	28a50513          	add	a0,a0,650 # 8000b1b0 <OSDbg_DataSize+0xa0>
    80000f2e:	e46ff0ef          	jal	80000574 <printf>
    80000f32:	0000a517          	auipc	a0,0xa
    80000f36:	2ae50513          	add	a0,a0,686 # 8000b1e0 <OSDbg_DataSize+0xd0>
    80000f3a:	f9dff0ef          	jal	80000ed6 <panic>
    80000f3e:	0001                	nop
    80000f40:	60e2                	ld	ra,24(sp)
    80000f42:	6105                	add	sp,sp,32
    80000f44:	8082                	ret

0000000080000f46 <sfence>:
    80000f46:	12000073          	sfence.vma
    80000f4a:	0001                	nop
    80000f4c:	8082                	ret

0000000080000f4e <r_int>:
    80000f4e:	1141                	add	sp,sp,-16
    80000f50:	e406                	sd	ra,8(sp)
    80000f52:	106000ef          	jal	80001058 <r_mstatus>
    80000f56:	87aa                	mv	a5,a0
    80000f58:	8ba1                	and	a5,a5,8
    80000f5a:	c399                	beqz	a5,80000f60 <r_int+0x12>
    80000f5c:	4785                	li	a5,1
    80000f5e:	a011                	j	80000f62 <r_int+0x14>
    80000f60:	4781                	li	a5,0
    80000f62:	853e                	mv	a0,a5
    80000f64:	60a2                	ld	ra,8(sp)
    80000f66:	0141                	add	sp,sp,16
    80000f68:	8082                	ret

0000000080000f6a <r_tp>:
    80000f6a:	1141                	add	sp,sp,-16
    80000f6c:	8792                	mv	a5,tp
    80000f6e:	e43e                	sd	a5,8(sp)
    80000f70:	67a2                	ld	a5,8(sp)
    80000f72:	853e                	mv	a0,a5
    80000f74:	0141                	add	sp,sp,16
    80000f76:	8082                	ret

0000000080000f78 <r_sip>:
    80000f78:	1141                	add	sp,sp,-16
    80000f7a:	144027f3          	csrr	a5,sip
    80000f7e:	e43e                	sd	a5,8(sp)
    80000f80:	67a2                	ld	a5,8(sp)
    80000f82:	853e                	mv	a0,a5
    80000f84:	0141                	add	sp,sp,16
    80000f86:	8082                	ret

0000000080000f88 <r_mip>:
    80000f88:	1141                	add	sp,sp,-16
    80000f8a:	344027f3          	csrr	a5,mip
    80000f8e:	e43e                	sd	a5,8(sp)
    80000f90:	67a2                	ld	a5,8(sp)
    80000f92:	853e                	mv	a0,a5
    80000f94:	0141                	add	sp,sp,16
    80000f96:	8082                	ret

0000000080000f98 <r_sie>:
    80000f98:	1141                	add	sp,sp,-16
    80000f9a:	104027f3          	csrr	a5,sie
    80000f9e:	e43e                	sd	a5,8(sp)
    80000fa0:	67a2                	ld	a5,8(sp)
    80000fa2:	853e                	mv	a0,a5
    80000fa4:	0141                	add	sp,sp,16
    80000fa6:	8082                	ret

0000000080000fa8 <r_mie>:
    80000fa8:	1141                	add	sp,sp,-16
    80000faa:	304027f3          	csrr	a5,mie
    80000fae:	e43e                	sd	a5,8(sp)
    80000fb0:	67a2                	ld	a5,8(sp)
    80000fb2:	853e                	mv	a0,a5
    80000fb4:	0141                	add	sp,sp,16
    80000fb6:	8082                	ret

0000000080000fb8 <r_satp>:
    80000fb8:	1141                	add	sp,sp,-16
    80000fba:	180027f3          	csrr	a5,satp
    80000fbe:	e43e                	sd	a5,8(sp)
    80000fc0:	67a2                	ld	a5,8(sp)
    80000fc2:	853e                	mv	a0,a5
    80000fc4:	0141                	add	sp,sp,16
    80000fc6:	8082                	ret

0000000080000fc8 <r_sepc>:
    80000fc8:	1141                	add	sp,sp,-16
    80000fca:	141027f3          	csrr	a5,sepc
    80000fce:	e43e                	sd	a5,8(sp)
    80000fd0:	67a2                	ld	a5,8(sp)
    80000fd2:	853e                	mv	a0,a5
    80000fd4:	0141                	add	sp,sp,16
    80000fd6:	8082                	ret

0000000080000fd8 <r_mepc>:
    80000fd8:	1141                	add	sp,sp,-16
    80000fda:	341027f3          	csrr	a5,mepc
    80000fde:	e43e                	sd	a5,8(sp)
    80000fe0:	67a2                	ld	a5,8(sp)
    80000fe2:	853e                	mv	a0,a5
    80000fe4:	0141                	add	sp,sp,16
    80000fe6:	8082                	ret

0000000080000fe8 <r_stval>:
    80000fe8:	1141                	add	sp,sp,-16
    80000fea:	143027f3          	csrr	a5,stval
    80000fee:	e43e                	sd	a5,8(sp)
    80000ff0:	67a2                	ld	a5,8(sp)
    80000ff2:	853e                	mv	a0,a5
    80000ff4:	0141                	add	sp,sp,16
    80000ff6:	8082                	ret

0000000080000ff8 <r_mtval>:
    80000ff8:	1141                	add	sp,sp,-16
    80000ffa:	343027f3          	csrr	a5,mtval
    80000ffe:	e43e                	sd	a5,8(sp)
    80001000:	67a2                	ld	a5,8(sp)
    80001002:	853e                	mv	a0,a5
    80001004:	0141                	add	sp,sp,16
    80001006:	8082                	ret

0000000080001008 <r_stvec>:
    80001008:	1141                	add	sp,sp,-16
    8000100a:	105027f3          	csrr	a5,stvec
    8000100e:	e43e                	sd	a5,8(sp)
    80001010:	67a2                	ld	a5,8(sp)
    80001012:	853e                	mv	a0,a5
    80001014:	0141                	add	sp,sp,16
    80001016:	8082                	ret

0000000080001018 <r_mtvec>:
    80001018:	1141                	add	sp,sp,-16
    8000101a:	305027f3          	csrr	a5,mtvec
    8000101e:	e43e                	sd	a5,8(sp)
    80001020:	67a2                	ld	a5,8(sp)
    80001022:	853e                	mv	a0,a5
    80001024:	0141                	add	sp,sp,16
    80001026:	8082                	ret

0000000080001028 <r_scause>:
    80001028:	1141                	add	sp,sp,-16
    8000102a:	142027f3          	csrr	a5,scause
    8000102e:	e43e                	sd	a5,8(sp)
    80001030:	67a2                	ld	a5,8(sp)
    80001032:	853e                	mv	a0,a5
    80001034:	0141                	add	sp,sp,16
    80001036:	8082                	ret

0000000080001038 <r_mcause>:
    80001038:	1141                	add	sp,sp,-16
    8000103a:	342027f3          	csrr	a5,mcause
    8000103e:	e43e                	sd	a5,8(sp)
    80001040:	67a2                	ld	a5,8(sp)
    80001042:	853e                	mv	a0,a5
    80001044:	0141                	add	sp,sp,16
    80001046:	8082                	ret

0000000080001048 <r_sstatus>:
    80001048:	1141                	add	sp,sp,-16
    8000104a:	100027f3          	csrr	a5,sstatus
    8000104e:	e43e                	sd	a5,8(sp)
    80001050:	67a2                	ld	a5,8(sp)
    80001052:	853e                	mv	a0,a5
    80001054:	0141                	add	sp,sp,16
    80001056:	8082                	ret

0000000080001058 <r_mstatus>:
    80001058:	1141                	add	sp,sp,-16
    8000105a:	300027f3          	csrr	a5,mstatus
    8000105e:	e43e                	sd	a5,8(sp)
    80001060:	67a2                	ld	a5,8(sp)
    80001062:	853e                	mv	a0,a5
    80001064:	0141                	add	sp,sp,16
    80001066:	8082                	ret

0000000080001068 <r_mhartid>:
    80001068:	1141                	add	sp,sp,-16
    8000106a:	f14027f3          	csrr	a5,mhartid
    8000106e:	e43e                	sd	a5,8(sp)
    80001070:	67a2                	ld	a5,8(sp)
    80001072:	853e                	mv	a0,a5
    80001074:	0141                	add	sp,sp,16
    80001076:	8082                	ret

0000000080001078 <r_mideleg>:
    80001078:	1141                	add	sp,sp,-16
    8000107a:	303027f3          	csrr	a5,mideleg
    8000107e:	e43e                	sd	a5,8(sp)
    80001080:	67a2                	ld	a5,8(sp)
    80001082:	853e                	mv	a0,a5
    80001084:	0141                	add	sp,sp,16
    80001086:	8082                	ret

0000000080001088 <r_medeleg>:
    80001088:	1141                	add	sp,sp,-16
    8000108a:	302027f3          	csrr	a5,medeleg
    8000108e:	e43e                	sd	a5,8(sp)
    80001090:	67a2                	ld	a5,8(sp)
    80001092:	853e                	mv	a0,a5
    80001094:	0141                	add	sp,sp,16
    80001096:	8082                	ret

0000000080001098 <r_sscratch>:
    80001098:	1141                	add	sp,sp,-16
    8000109a:	140027f3          	csrr	a5,sscratch
    8000109e:	e43e                	sd	a5,8(sp)
    800010a0:	67a2                	ld	a5,8(sp)
    800010a2:	853e                	mv	a0,a5
    800010a4:	0141                	add	sp,sp,16
    800010a6:	8082                	ret

00000000800010a8 <r_mscratch>:
    800010a8:	1141                	add	sp,sp,-16
    800010aa:	340027f3          	csrr	a5,mscratch
    800010ae:	e43e                	sd	a5,8(sp)
    800010b0:	67a2                	ld	a5,8(sp)
    800010b2:	853e                	mv	a0,a5
    800010b4:	0141                	add	sp,sp,16
    800010b6:	8082                	ret

00000000800010b8 <w_int_on>:
    800010b8:	1141                	add	sp,sp,-16
    800010ba:	e406                	sd	ra,8(sp)
    800010bc:	f9dff0ef          	jal	80001058 <r_mstatus>
    800010c0:	87aa                	mv	a5,a0
    800010c2:	0087e793          	or	a5,a5,8
    800010c6:	853e                	mv	a0,a5
    800010c8:	11a000ef          	jal	800011e2 <w_mstatus>
    800010cc:	0001                	nop
    800010ce:	60a2                	ld	ra,8(sp)
    800010d0:	0141                	add	sp,sp,16
    800010d2:	8082                	ret

00000000800010d4 <w_int_off>:
    800010d4:	1141                	add	sp,sp,-16
    800010d6:	e406                	sd	ra,8(sp)
    800010d8:	f81ff0ef          	jal	80001058 <r_mstatus>
    800010dc:	872a                	mv	a4,a0
    800010de:	4785                	li	a5,1
    800010e0:	1782                	sll	a5,a5,0x20
    800010e2:	17dd                	add	a5,a5,-9
    800010e4:	8ff9                	and	a5,a5,a4
    800010e6:	853e                	mv	a0,a5
    800010e8:	0fa000ef          	jal	800011e2 <w_mstatus>
    800010ec:	0001                	nop
    800010ee:	60a2                	ld	ra,8(sp)
    800010f0:	0141                	add	sp,sp,16
    800010f2:	8082                	ret

00000000800010f4 <w_tp>:
    800010f4:	1141                	add	sp,sp,-16
    800010f6:	e42a                	sd	a0,8(sp)
    800010f8:	67a2                	ld	a5,8(sp)
    800010fa:	823e                	mv	tp,a5
    800010fc:	0001                	nop
    800010fe:	0141                	add	sp,sp,16
    80001100:	8082                	ret

0000000080001102 <w_sip>:
    80001102:	1141                	add	sp,sp,-16
    80001104:	e42a                	sd	a0,8(sp)
    80001106:	67a2                	ld	a5,8(sp)
    80001108:	14479073          	csrw	sip,a5
    8000110c:	0001                	nop
    8000110e:	0141                	add	sp,sp,16
    80001110:	8082                	ret

0000000080001112 <w_mip>:
    80001112:	1141                	add	sp,sp,-16
    80001114:	e42a                	sd	a0,8(sp)
    80001116:	67a2                	ld	a5,8(sp)
    80001118:	34479073          	csrw	mip,a5
    8000111c:	0001                	nop
    8000111e:	0141                	add	sp,sp,16
    80001120:	8082                	ret

0000000080001122 <w_sie>:
    80001122:	1141                	add	sp,sp,-16
    80001124:	e42a                	sd	a0,8(sp)
    80001126:	67a2                	ld	a5,8(sp)
    80001128:	10479073          	csrw	sie,a5
    8000112c:	0001                	nop
    8000112e:	0141                	add	sp,sp,16
    80001130:	8082                	ret

0000000080001132 <w_mie>:
    80001132:	1141                	add	sp,sp,-16
    80001134:	e42a                	sd	a0,8(sp)
    80001136:	67a2                	ld	a5,8(sp)
    80001138:	30479073          	csrw	mie,a5
    8000113c:	0001                	nop
    8000113e:	0141                	add	sp,sp,16
    80001140:	8082                	ret

0000000080001142 <w_satp>:
    80001142:	1141                	add	sp,sp,-16
    80001144:	e42a                	sd	a0,8(sp)
    80001146:	67a2                	ld	a5,8(sp)
    80001148:	18079073          	csrw	satp,a5
    8000114c:	0001                	nop
    8000114e:	0141                	add	sp,sp,16
    80001150:	8082                	ret

0000000080001152 <w_sepc>:
    80001152:	1141                	add	sp,sp,-16
    80001154:	e42a                	sd	a0,8(sp)
    80001156:	67a2                	ld	a5,8(sp)
    80001158:	14179073          	csrw	sepc,a5
    8000115c:	0001                	nop
    8000115e:	0141                	add	sp,sp,16
    80001160:	8082                	ret

0000000080001162 <w_mepc>:
    80001162:	1141                	add	sp,sp,-16
    80001164:	e42a                	sd	a0,8(sp)
    80001166:	67a2                	ld	a5,8(sp)
    80001168:	34179073          	csrw	mepc,a5
    8000116c:	0001                	nop
    8000116e:	0141                	add	sp,sp,16
    80001170:	8082                	ret

0000000080001172 <w_stval>:
    80001172:	1141                	add	sp,sp,-16
    80001174:	e42a                	sd	a0,8(sp)
    80001176:	67a2                	ld	a5,8(sp)
    80001178:	14379073          	csrw	stval,a5
    8000117c:	0001                	nop
    8000117e:	0141                	add	sp,sp,16
    80001180:	8082                	ret

0000000080001182 <w_mtval>:
    80001182:	1141                	add	sp,sp,-16
    80001184:	e42a                	sd	a0,8(sp)
    80001186:	67a2                	ld	a5,8(sp)
    80001188:	34379073          	csrw	mtval,a5
    8000118c:	0001                	nop
    8000118e:	0141                	add	sp,sp,16
    80001190:	8082                	ret

0000000080001192 <w_stvec>:
    80001192:	1141                	add	sp,sp,-16
    80001194:	e42a                	sd	a0,8(sp)
    80001196:	67a2                	ld	a5,8(sp)
    80001198:	10579073          	csrw	stvec,a5
    8000119c:	0001                	nop
    8000119e:	0141                	add	sp,sp,16
    800011a0:	8082                	ret

00000000800011a2 <w_mtvec>:
    800011a2:	1141                	add	sp,sp,-16
    800011a4:	e42a                	sd	a0,8(sp)
    800011a6:	67a2                	ld	a5,8(sp)
    800011a8:	30579073          	csrw	mtvec,a5
    800011ac:	0001                	nop
    800011ae:	0141                	add	sp,sp,16
    800011b0:	8082                	ret

00000000800011b2 <w_scause>:
    800011b2:	1141                	add	sp,sp,-16
    800011b4:	e42a                	sd	a0,8(sp)
    800011b6:	67a2                	ld	a5,8(sp)
    800011b8:	14279073          	csrw	scause,a5
    800011bc:	0001                	nop
    800011be:	0141                	add	sp,sp,16
    800011c0:	8082                	ret

00000000800011c2 <w_mcause>:
    800011c2:	1141                	add	sp,sp,-16
    800011c4:	e42a                	sd	a0,8(sp)
    800011c6:	67a2                	ld	a5,8(sp)
    800011c8:	34279073          	csrw	mcause,a5
    800011cc:	0001                	nop
    800011ce:	0141                	add	sp,sp,16
    800011d0:	8082                	ret

00000000800011d2 <w_sstatus>:
    800011d2:	1141                	add	sp,sp,-16
    800011d4:	e42a                	sd	a0,8(sp)
    800011d6:	67a2                	ld	a5,8(sp)
    800011d8:	10079073          	csrw	sstatus,a5
    800011dc:	0001                	nop
    800011de:	0141                	add	sp,sp,16
    800011e0:	8082                	ret

00000000800011e2 <w_mstatus>:
    800011e2:	1141                	add	sp,sp,-16
    800011e4:	e42a                	sd	a0,8(sp)
    800011e6:	67a2                	ld	a5,8(sp)
    800011e8:	30079073          	csrw	mstatus,a5
    800011ec:	0001                	nop
    800011ee:	0141                	add	sp,sp,16
    800011f0:	8082                	ret

00000000800011f2 <w_mideleg>:
    800011f2:	1141                	add	sp,sp,-16
    800011f4:	e42a                	sd	a0,8(sp)
    800011f6:	67a2                	ld	a5,8(sp)
    800011f8:	30379073          	csrw	mideleg,a5
    800011fc:	0001                	nop
    800011fe:	0141                	add	sp,sp,16
    80001200:	8082                	ret

0000000080001202 <w_medeleg>:
    80001202:	1141                	add	sp,sp,-16
    80001204:	e42a                	sd	a0,8(sp)
    80001206:	67a2                	ld	a5,8(sp)
    80001208:	30279073          	csrw	medeleg,a5
    8000120c:	0001                	nop
    8000120e:	0141                	add	sp,sp,16
    80001210:	8082                	ret

0000000080001212 <w_sscratch>:
    80001212:	1141                	add	sp,sp,-16
    80001214:	e42a                	sd	a0,8(sp)
    80001216:	67a2                	ld	a5,8(sp)
    80001218:	14079073          	csrw	sscratch,a5
    8000121c:	0001                	nop
    8000121e:	0141                	add	sp,sp,16
    80001220:	8082                	ret

0000000080001222 <w_mscratch>:
    80001222:	1141                	add	sp,sp,-16
    80001224:	e42a                	sd	a0,8(sp)
    80001226:	67a2                	ld	a5,8(sp)
    80001228:	34079073          	csrw	mscratch,a5
    8000122c:	0001                	nop
    8000122e:	0141                	add	sp,sp,16
    80001230:	8082                	ret

0000000080001232 <w_pmpaddr0>:
    80001232:	1141                	add	sp,sp,-16
    80001234:	e42a                	sd	a0,8(sp)
    80001236:	67a2                	ld	a5,8(sp)
    80001238:	3b079073          	csrw	pmpaddr0,a5
    8000123c:	0001                	nop
    8000123e:	0141                	add	sp,sp,16
    80001240:	8082                	ret

0000000080001242 <w_pmpcfg0>:
    80001242:	1141                	add	sp,sp,-16
    80001244:	e42a                	sd	a0,8(sp)
    80001246:	67a2                	ld	a5,8(sp)
    80001248:	3a079073          	csrw	pmpcfg0,a5
    8000124c:	0001                	nop
    8000124e:	0141                	add	sp,sp,16
    80001250:	8082                	ret
	...

0000000080001260 <trap_entry>:
    80001260:	7111                	add	sp,sp,-256
    80001262:	e006                	sd	ra,0(sp)
    80001264:	f016                	sd	t0,32(sp)
    80001266:	f41a                	sd	t1,40(sp)
    80001268:	f81e                	sd	t2,48(sp)
    8000126a:	fc22                	sd	s0,56(sp)
    8000126c:	e0a6                	sd	s1,64(sp)
    8000126e:	e4aa                	sd	a0,72(sp)
    80001270:	e8ae                	sd	a1,80(sp)
    80001272:	ecb2                	sd	a2,88(sp)
    80001274:	f0b6                	sd	a3,96(sp)
    80001276:	f4ba                	sd	a4,104(sp)
    80001278:	f8be                	sd	a5,112(sp)
    8000127a:	fcc2                	sd	a6,120(sp)
    8000127c:	e146                	sd	a7,128(sp)
    8000127e:	e54a                	sd	s2,136(sp)
    80001280:	e94e                	sd	s3,144(sp)
    80001282:	ed52                	sd	s4,152(sp)
    80001284:	f156                	sd	s5,160(sp)
    80001286:	f55a                	sd	s6,168(sp)
    80001288:	f95e                	sd	s7,176(sp)
    8000128a:	fd62                	sd	s8,184(sp)
    8000128c:	e1e6                	sd	s9,192(sp)
    8000128e:	e5ea                	sd	s10,200(sp)
    80001290:	e9ee                	sd	s11,208(sp)
    80001292:	edf2                	sd	t3,216(sp)
    80001294:	f1f6                	sd	t4,224(sp)
    80001296:	f5fa                	sd	t5,232(sp)
    80001298:	f9fe                	sd	t6,240(sp)
    8000129a:	341022f3          	csrr	t0,mepc
    8000129e:	fd96                	sd	t0,248(sp)
    800012a0:	34202573          	csrr	a0,mcause
    800012a4:	343025f3          	csrr	a1,mtval
    800012a8:	00010633          	add	a2,sp,zero
    800012ac:	db9fe0ef          	jal	80000064 <trap_handler>
    800012b0:	72ee                	ld	t0,248(sp)
    800012b2:	34129073          	csrw	mepc,t0
    800012b6:	6082                	ld	ra,0(sp)
    800012b8:	7282                	ld	t0,32(sp)
    800012ba:	7322                	ld	t1,40(sp)
    800012bc:	73c2                	ld	t2,48(sp)
    800012be:	7462                	ld	s0,56(sp)
    800012c0:	6486                	ld	s1,64(sp)
    800012c2:	6526                	ld	a0,72(sp)
    800012c4:	65c6                	ld	a1,80(sp)
    800012c6:	6666                	ld	a2,88(sp)
    800012c8:	7686                	ld	a3,96(sp)
    800012ca:	7726                	ld	a4,104(sp)
    800012cc:	77c6                	ld	a5,112(sp)
    800012ce:	7866                	ld	a6,120(sp)
    800012d0:	688a                	ld	a7,128(sp)
    800012d2:	692a                	ld	s2,136(sp)
    800012d4:	69ca                	ld	s3,144(sp)
    800012d6:	6a6a                	ld	s4,152(sp)
    800012d8:	7a8a                	ld	s5,160(sp)
    800012da:	7b2a                	ld	s6,168(sp)
    800012dc:	7bca                	ld	s7,176(sp)
    800012de:	7c6a                	ld	s8,184(sp)
    800012e0:	6c8e                	ld	s9,192(sp)
    800012e2:	6d2e                	ld	s10,200(sp)
    800012e4:	6dce                	ld	s11,208(sp)
    800012e6:	6e6e                	ld	t3,216(sp)
    800012e8:	7e8e                	ld	t4,224(sp)
    800012ea:	7f2e                	ld	t5,232(sp)
    800012ec:	7fce                	ld	t6,240(sp)
    800012ee:	6111                	add	sp,sp,256
    800012f0:	30200073          	mret
	...

00000000800012fe <CPU_IntDis>:
    800012fe:	42a1                	li	t0,8
    80001300:	3002b073          	csrc	mstatus,t0
    80001304:	8082                	ret

0000000080001306 <CPU_IntEn>:
    80001306:	42a1                	li	t0,8
    80001308:	3002a073          	csrs	mstatus,t0
    8000130c:	8082                	ret

000000008000130e <CPU_SR_Save>:
    8000130e:	30002573          	csrr	a0,mstatus
    80001312:	42a1                	li	t0,8
    80001314:	3002b073          	csrc	mstatus,t0
    80001318:	8082                	ret

000000008000131a <CPU_SR_Restore>:
    8000131a:	30051073          	csrw	mstatus,a0
    8000131e:	8082                	ret

0000000080001320 <CPU_Init>:
    80001320:	0001                	nop
    80001322:	8082                	ret

0000000080001324 <CPU_SW_Exception>:
    80001324:	0001                	nop
    80001326:	bffd                	j	80001324 <CPU_SW_Exception>

0000000080001328 <CPU_CntLeadZeros>:
    80001328:	7179                	add	sp,sp,-48
    8000132a:	f406                	sd	ra,40(sp)
    8000132c:	e42a                	sd	a0,8(sp)
    8000132e:	6522                	ld	a0,8(sp)
    80001330:	152000ef          	jal	80001482 <CPU_CntLeadZeros64>
    80001334:	ec2a                	sd	a0,24(sp)
    80001336:	67e2                	ld	a5,24(sp)
    80001338:	853e                	mv	a0,a5
    8000133a:	70a2                	ld	ra,40(sp)
    8000133c:	6145                	add	sp,sp,48
    8000133e:	8082                	ret

0000000080001340 <CPU_CntLeadZeros08>:
    80001340:	1101                	add	sp,sp,-32
    80001342:	87aa                	mv	a5,a0
    80001344:	00f107a3          	sb	a5,15(sp)
    80001348:	00f14783          	lbu	a5,15(sp)
    8000134c:	ec3e                	sd	a5,24(sp)
    8000134e:	0000a717          	auipc	a4,0xa
    80001352:	f7270713          	add	a4,a4,-142 # 8000b2c0 <CPU_CntLeadZerosTbl>
    80001356:	67e2                	ld	a5,24(sp)
    80001358:	97ba                	add	a5,a5,a4
    8000135a:	0007c783          	lbu	a5,0(a5)
    8000135e:	e83e                	sd	a5,16(sp)
    80001360:	67c2                	ld	a5,16(sp)
    80001362:	853e                	mv	a0,a5
    80001364:	6105                	add	sp,sp,32
    80001366:	8082                	ret

0000000080001368 <CPU_CntLeadZeros16>:
    80001368:	1101                	add	sp,sp,-32
    8000136a:	87aa                	mv	a5,a0
    8000136c:	00f11723          	sh	a5,14(sp)
    80001370:	00e15783          	lhu	a5,14(sp)
    80001374:	0007871b          	sext.w	a4,a5
    80001378:	0ff00793          	li	a5,255
    8000137c:	02e7f563          	bgeu	a5,a4,800013a6 <CPU_CntLeadZeros16+0x3e>
    80001380:	00e15783          	lhu	a5,14(sp)
    80001384:	0087d79b          	srlw	a5,a5,0x8
    80001388:	00f11723          	sh	a5,14(sp)
    8000138c:	00e15783          	lhu	a5,14(sp)
    80001390:	e83e                	sd	a5,16(sp)
    80001392:	0000a717          	auipc	a4,0xa
    80001396:	f2e70713          	add	a4,a4,-210 # 8000b2c0 <CPU_CntLeadZerosTbl>
    8000139a:	67c2                	ld	a5,16(sp)
    8000139c:	97ba                	add	a5,a5,a4
    8000139e:	0007c783          	lbu	a5,0(a5)
    800013a2:	ec3e                	sd	a5,24(sp)
    800013a4:	a831                	j	800013c0 <CPU_CntLeadZeros16+0x58>
    800013a6:	00e15783          	lhu	a5,14(sp)
    800013aa:	e83e                	sd	a5,16(sp)
    800013ac:	0000a717          	auipc	a4,0xa
    800013b0:	f1470713          	add	a4,a4,-236 # 8000b2c0 <CPU_CntLeadZerosTbl>
    800013b4:	67c2                	ld	a5,16(sp)
    800013b6:	97ba                	add	a5,a5,a4
    800013b8:	0007c783          	lbu	a5,0(a5)
    800013bc:	07a1                	add	a5,a5,8
    800013be:	ec3e                	sd	a5,24(sp)
    800013c0:	67e2                	ld	a5,24(sp)
    800013c2:	853e                	mv	a0,a5
    800013c4:	6105                	add	sp,sp,32
    800013c6:	8082                	ret

00000000800013c8 <CPU_CntLeadZeros32>:
    800013c8:	1101                	add	sp,sp,-32
    800013ca:	87aa                	mv	a5,a0
    800013cc:	c63e                	sw	a5,12(sp)
    800013ce:	47b2                	lw	a5,12(sp)
    800013d0:	0007871b          	sext.w	a4,a5
    800013d4:	67c1                	lui	a5,0x10
    800013d6:	04f76c63          	bltu	a4,a5,8000142e <CPU_CntLeadZeros32+0x66>
    800013da:	47b2                	lw	a5,12(sp)
    800013dc:	0007871b          	sext.w	a4,a5
    800013e0:	010007b7          	lui	a5,0x1000
    800013e4:	02f76363          	bltu	a4,a5,8000140a <CPU_CntLeadZeros32+0x42>
    800013e8:	47b2                	lw	a5,12(sp)
    800013ea:	0187d79b          	srlw	a5,a5,0x18
    800013ee:	c63e                	sw	a5,12(sp)
    800013f0:	00c16783          	lwu	a5,12(sp)
    800013f4:	e83e                	sd	a5,16(sp)
    800013f6:	0000a717          	auipc	a4,0xa
    800013fa:	eca70713          	add	a4,a4,-310 # 8000b2c0 <CPU_CntLeadZerosTbl>
    800013fe:	67c2                	ld	a5,16(sp)
    80001400:	97ba                	add	a5,a5,a4
    80001402:	0007c783          	lbu	a5,0(a5) # 1000000 <CPU_MSTATUS_MIE+0xfffff8>
    80001406:	ec3e                	sd	a5,24(sp)
    80001408:	a88d                	j	8000147a <CPU_CntLeadZeros32+0xb2>
    8000140a:	47b2                	lw	a5,12(sp)
    8000140c:	0107d79b          	srlw	a5,a5,0x10
    80001410:	c63e                	sw	a5,12(sp)
    80001412:	00c16783          	lwu	a5,12(sp)
    80001416:	e83e                	sd	a5,16(sp)
    80001418:	0000a717          	auipc	a4,0xa
    8000141c:	ea870713          	add	a4,a4,-344 # 8000b2c0 <CPU_CntLeadZerosTbl>
    80001420:	67c2                	ld	a5,16(sp)
    80001422:	97ba                	add	a5,a5,a4
    80001424:	0007c783          	lbu	a5,0(a5)
    80001428:	07a1                	add	a5,a5,8
    8000142a:	ec3e                	sd	a5,24(sp)
    8000142c:	a0b9                	j	8000147a <CPU_CntLeadZeros32+0xb2>
    8000142e:	47b2                	lw	a5,12(sp)
    80001430:	0007871b          	sext.w	a4,a5
    80001434:	0ff00793          	li	a5,255
    80001438:	02e7f463          	bgeu	a5,a4,80001460 <CPU_CntLeadZeros32+0x98>
    8000143c:	47b2                	lw	a5,12(sp)
    8000143e:	0087d79b          	srlw	a5,a5,0x8
    80001442:	c63e                	sw	a5,12(sp)
    80001444:	00c16783          	lwu	a5,12(sp)
    80001448:	e83e                	sd	a5,16(sp)
    8000144a:	0000a717          	auipc	a4,0xa
    8000144e:	e7670713          	add	a4,a4,-394 # 8000b2c0 <CPU_CntLeadZerosTbl>
    80001452:	67c2                	ld	a5,16(sp)
    80001454:	97ba                	add	a5,a5,a4
    80001456:	0007c783          	lbu	a5,0(a5)
    8000145a:	07c1                	add	a5,a5,16
    8000145c:	ec3e                	sd	a5,24(sp)
    8000145e:	a831                	j	8000147a <CPU_CntLeadZeros32+0xb2>
    80001460:	00c16783          	lwu	a5,12(sp)
    80001464:	e83e                	sd	a5,16(sp)
    80001466:	0000a717          	auipc	a4,0xa
    8000146a:	e5a70713          	add	a4,a4,-422 # 8000b2c0 <CPU_CntLeadZerosTbl>
    8000146e:	67c2                	ld	a5,16(sp)
    80001470:	97ba                	add	a5,a5,a4
    80001472:	0007c783          	lbu	a5,0(a5)
    80001476:	07e1                	add	a5,a5,24
    80001478:	ec3e                	sd	a5,24(sp)
    8000147a:	67e2                	ld	a5,24(sp)
    8000147c:	853e                	mv	a0,a5
    8000147e:	6105                	add	sp,sp,32
    80001480:	8082                	ret

0000000080001482 <CPU_CntLeadZeros64>:
    80001482:	1101                	add	sp,sp,-32
    80001484:	e42a                	sd	a0,8(sp)
    80001486:	6722                	ld	a4,8(sp)
    80001488:	57fd                	li	a5,-1
    8000148a:	9381                	srl	a5,a5,0x20
    8000148c:	0ae7f063          	bgeu	a5,a4,8000152c <CPU_CntLeadZeros64+0xaa>
    80001490:	6722                	ld	a4,8(sp)
    80001492:	57fd                	li	a5,-1
    80001494:	83c1                	srl	a5,a5,0x10
    80001496:	04e7f663          	bgeu	a5,a4,800014e2 <CPU_CntLeadZeros64+0x60>
    8000149a:	6722                	ld	a4,8(sp)
    8000149c:	57fd                	li	a5,-1
    8000149e:	83a1                	srl	a5,a5,0x8
    800014a0:	02e7f163          	bgeu	a5,a4,800014c2 <CPU_CntLeadZeros64+0x40>
    800014a4:	67a2                	ld	a5,8(sp)
    800014a6:	93e1                	srl	a5,a5,0x38
    800014a8:	e43e                	sd	a5,8(sp)
    800014aa:	67a2                	ld	a5,8(sp)
    800014ac:	e83e                	sd	a5,16(sp)
    800014ae:	0000a717          	auipc	a4,0xa
    800014b2:	e1270713          	add	a4,a4,-494 # 8000b2c0 <CPU_CntLeadZerosTbl>
    800014b6:	67c2                	ld	a5,16(sp)
    800014b8:	97ba                	add	a5,a5,a4
    800014ba:	0007c783          	lbu	a5,0(a5)
    800014be:	ec3e                	sd	a5,24(sp)
    800014c0:	a221                	j	800015c8 <CPU_CntLeadZeros64+0x146>
    800014c2:	67a2                	ld	a5,8(sp)
    800014c4:	93c1                	srl	a5,a5,0x30
    800014c6:	e43e                	sd	a5,8(sp)
    800014c8:	67a2                	ld	a5,8(sp)
    800014ca:	e83e                	sd	a5,16(sp)
    800014cc:	0000a717          	auipc	a4,0xa
    800014d0:	df470713          	add	a4,a4,-524 # 8000b2c0 <CPU_CntLeadZerosTbl>
    800014d4:	67c2                	ld	a5,16(sp)
    800014d6:	97ba                	add	a5,a5,a4
    800014d8:	0007c783          	lbu	a5,0(a5)
    800014dc:	07a1                	add	a5,a5,8
    800014de:	ec3e                	sd	a5,24(sp)
    800014e0:	a0e5                	j	800015c8 <CPU_CntLeadZeros64+0x146>
    800014e2:	6722                	ld	a4,8(sp)
    800014e4:	57fd                	li	a5,-1
    800014e6:	83e1                	srl	a5,a5,0x18
    800014e8:	02e7f263          	bgeu	a5,a4,8000150c <CPU_CntLeadZeros64+0x8a>
    800014ec:	67a2                	ld	a5,8(sp)
    800014ee:	93a1                	srl	a5,a5,0x28
    800014f0:	e43e                	sd	a5,8(sp)
    800014f2:	67a2                	ld	a5,8(sp)
    800014f4:	e83e                	sd	a5,16(sp)
    800014f6:	0000a717          	auipc	a4,0xa
    800014fa:	dca70713          	add	a4,a4,-566 # 8000b2c0 <CPU_CntLeadZerosTbl>
    800014fe:	67c2                	ld	a5,16(sp)
    80001500:	97ba                	add	a5,a5,a4
    80001502:	0007c783          	lbu	a5,0(a5)
    80001506:	07c1                	add	a5,a5,16
    80001508:	ec3e                	sd	a5,24(sp)
    8000150a:	a87d                	j	800015c8 <CPU_CntLeadZeros64+0x146>
    8000150c:	67a2                	ld	a5,8(sp)
    8000150e:	9381                	srl	a5,a5,0x20
    80001510:	e43e                	sd	a5,8(sp)
    80001512:	67a2                	ld	a5,8(sp)
    80001514:	e83e                	sd	a5,16(sp)
    80001516:	0000a717          	auipc	a4,0xa
    8000151a:	daa70713          	add	a4,a4,-598 # 8000b2c0 <CPU_CntLeadZerosTbl>
    8000151e:	67c2                	ld	a5,16(sp)
    80001520:	97ba                	add	a5,a5,a4
    80001522:	0007c783          	lbu	a5,0(a5)
    80001526:	07e1                	add	a5,a5,24
    80001528:	ec3e                	sd	a5,24(sp)
    8000152a:	a879                	j	800015c8 <CPU_CntLeadZeros64+0x146>
    8000152c:	6722                	ld	a4,8(sp)
    8000152e:	67c1                	lui	a5,0x10
    80001530:	04f76963          	bltu	a4,a5,80001582 <CPU_CntLeadZeros64+0x100>
    80001534:	6722                	ld	a4,8(sp)
    80001536:	010007b7          	lui	a5,0x1000
    8000153a:	02f76363          	bltu	a4,a5,80001560 <CPU_CntLeadZeros64+0xde>
    8000153e:	67a2                	ld	a5,8(sp)
    80001540:	83e1                	srl	a5,a5,0x18
    80001542:	e43e                	sd	a5,8(sp)
    80001544:	67a2                	ld	a5,8(sp)
    80001546:	e83e                	sd	a5,16(sp)
    80001548:	0000a717          	auipc	a4,0xa
    8000154c:	d7870713          	add	a4,a4,-648 # 8000b2c0 <CPU_CntLeadZerosTbl>
    80001550:	67c2                	ld	a5,16(sp)
    80001552:	97ba                	add	a5,a5,a4
    80001554:	0007c783          	lbu	a5,0(a5) # 1000000 <CPU_MSTATUS_MIE+0xfffff8>
    80001558:	02078793          	add	a5,a5,32
    8000155c:	ec3e                	sd	a5,24(sp)
    8000155e:	a0ad                	j	800015c8 <CPU_CntLeadZeros64+0x146>
    80001560:	67a2                	ld	a5,8(sp)
    80001562:	83c1                	srl	a5,a5,0x10
    80001564:	e43e                	sd	a5,8(sp)
    80001566:	67a2                	ld	a5,8(sp)
    80001568:	e83e                	sd	a5,16(sp)
    8000156a:	0000a717          	auipc	a4,0xa
    8000156e:	d5670713          	add	a4,a4,-682 # 8000b2c0 <CPU_CntLeadZerosTbl>
    80001572:	67c2                	ld	a5,16(sp)
    80001574:	97ba                	add	a5,a5,a4
    80001576:	0007c783          	lbu	a5,0(a5)
    8000157a:	02878793          	add	a5,a5,40
    8000157e:	ec3e                	sd	a5,24(sp)
    80001580:	a0a1                	j	800015c8 <CPU_CntLeadZeros64+0x146>
    80001582:	6722                	ld	a4,8(sp)
    80001584:	0ff00793          	li	a5,255
    80001588:	02e7f363          	bgeu	a5,a4,800015ae <CPU_CntLeadZeros64+0x12c>
    8000158c:	67a2                	ld	a5,8(sp)
    8000158e:	83a1                	srl	a5,a5,0x8
    80001590:	e43e                	sd	a5,8(sp)
    80001592:	67a2                	ld	a5,8(sp)
    80001594:	e83e                	sd	a5,16(sp)
    80001596:	0000a717          	auipc	a4,0xa
    8000159a:	d2a70713          	add	a4,a4,-726 # 8000b2c0 <CPU_CntLeadZerosTbl>
    8000159e:	67c2                	ld	a5,16(sp)
    800015a0:	97ba                	add	a5,a5,a4
    800015a2:	0007c783          	lbu	a5,0(a5)
    800015a6:	03078793          	add	a5,a5,48
    800015aa:	ec3e                	sd	a5,24(sp)
    800015ac:	a831                	j	800015c8 <CPU_CntLeadZeros64+0x146>
    800015ae:	67a2                	ld	a5,8(sp)
    800015b0:	e83e                	sd	a5,16(sp)
    800015b2:	0000a717          	auipc	a4,0xa
    800015b6:	d0e70713          	add	a4,a4,-754 # 8000b2c0 <CPU_CntLeadZerosTbl>
    800015ba:	67c2                	ld	a5,16(sp)
    800015bc:	97ba                	add	a5,a5,a4
    800015be:	0007c783          	lbu	a5,0(a5)
    800015c2:	03878793          	add	a5,a5,56
    800015c6:	ec3e                	sd	a5,24(sp)
    800015c8:	67e2                	ld	a5,24(sp)
    800015ca:	853e                	mv	a0,a5
    800015cc:	6105                	add	sp,sp,32
    800015ce:	8082                	ret

00000000800015d0 <CPU_CntTrailZeros>:
    800015d0:	7139                	add	sp,sp,-64
    800015d2:	fc06                	sd	ra,56(sp)
    800015d4:	e42a                	sd	a0,8(sp)
    800015d6:	67a2                	ld	a5,8(sp)
    800015d8:	e781                	bnez	a5,800015e0 <CPU_CntTrailZeros+0x10>
    800015da:	04000793          	li	a5,64
    800015de:	a015                	j	80001602 <CPU_CntTrailZeros+0x32>
    800015e0:	67a2                	ld	a5,8(sp)
    800015e2:	40f007b3          	neg	a5,a5
    800015e6:	6722                	ld	a4,8(sp)
    800015e8:	8ff9                	and	a5,a5,a4
    800015ea:	f43e                	sd	a5,40(sp)
    800015ec:	7522                	ld	a0,40(sp)
    800015ee:	d3bff0ef          	jal	80001328 <CPU_CntLeadZeros>
    800015f2:	f02a                	sd	a0,32(sp)
    800015f4:	03f00713          	li	a4,63
    800015f8:	7782                	ld	a5,32(sp)
    800015fa:	40f707b3          	sub	a5,a4,a5
    800015fe:	ec3e                	sd	a5,24(sp)
    80001600:	67e2                	ld	a5,24(sp)
    80001602:	853e                	mv	a0,a5
    80001604:	70e2                	ld	ra,56(sp)
    80001606:	6121                	add	sp,sp,64
    80001608:	8082                	ret

000000008000160a <CPU_CntTrailZeros08>:
    8000160a:	7139                	add	sp,sp,-64
    8000160c:	fc06                	sd	ra,56(sp)
    8000160e:	87aa                	mv	a5,a0
    80001610:	00f107a3          	sb	a5,15(sp)
    80001614:	00f14783          	lbu	a5,15(sp)
    80001618:	0ff7f793          	zext.b	a5,a5
    8000161c:	e399                	bnez	a5,80001622 <CPU_CntTrailZeros08+0x18>
    8000161e:	47a1                	li	a5,8
    80001620:	a805                	j	80001650 <CPU_CntTrailZeros08+0x46>
    80001622:	00f14783          	lbu	a5,15(sp)
    80001626:	40f007bb          	negw	a5,a5
    8000162a:	0ff7f793          	zext.b	a5,a5
    8000162e:	00f14703          	lbu	a4,15(sp)
    80001632:	8ff9                	and	a5,a5,a4
    80001634:	02f107a3          	sb	a5,47(sp)
    80001638:	02f14783          	lbu	a5,47(sp)
    8000163c:	853e                	mv	a0,a5
    8000163e:	d03ff0ef          	jal	80001340 <CPU_CntLeadZeros08>
    80001642:	f02a                	sd	a0,32(sp)
    80001644:	471d                	li	a4,7
    80001646:	7782                	ld	a5,32(sp)
    80001648:	40f707b3          	sub	a5,a4,a5
    8000164c:	ec3e                	sd	a5,24(sp)
    8000164e:	67e2                	ld	a5,24(sp)
    80001650:	853e                	mv	a0,a5
    80001652:	70e2                	ld	ra,56(sp)
    80001654:	6121                	add	sp,sp,64
    80001656:	8082                	ret

0000000080001658 <CPU_CntTrailZeros16>:
    80001658:	7139                	add	sp,sp,-64
    8000165a:	fc06                	sd	ra,56(sp)
    8000165c:	87aa                	mv	a5,a0
    8000165e:	00f11723          	sh	a5,14(sp)
    80001662:	00e15783          	lhu	a5,14(sp)
    80001666:	2781                	sext.w	a5,a5
    80001668:	e399                	bnez	a5,8000166e <CPU_CntTrailZeros16+0x16>
    8000166a:	47c1                	li	a5,16
    8000166c:	a805                	j	8000169c <CPU_CntTrailZeros16+0x44>
    8000166e:	00e15783          	lhu	a5,14(sp)
    80001672:	40f007bb          	negw	a5,a5
    80001676:	17c2                	sll	a5,a5,0x30
    80001678:	93c1                	srl	a5,a5,0x30
    8000167a:	00e15703          	lhu	a4,14(sp)
    8000167e:	8ff9                	and	a5,a5,a4
    80001680:	02f11723          	sh	a5,46(sp)
    80001684:	02e15783          	lhu	a5,46(sp)
    80001688:	853e                	mv	a0,a5
    8000168a:	cdfff0ef          	jal	80001368 <CPU_CntLeadZeros16>
    8000168e:	f02a                	sd	a0,32(sp)
    80001690:	473d                	li	a4,15
    80001692:	7782                	ld	a5,32(sp)
    80001694:	40f707b3          	sub	a5,a4,a5
    80001698:	ec3e                	sd	a5,24(sp)
    8000169a:	67e2                	ld	a5,24(sp)
    8000169c:	853e                	mv	a0,a5
    8000169e:	70e2                	ld	ra,56(sp)
    800016a0:	6121                	add	sp,sp,64
    800016a2:	8082                	ret

00000000800016a4 <CPU_CntTrailZeros32>:
    800016a4:	7139                	add	sp,sp,-64
    800016a6:	fc06                	sd	ra,56(sp)
    800016a8:	87aa                	mv	a5,a0
    800016aa:	c63e                	sw	a5,12(sp)
    800016ac:	47b2                	lw	a5,12(sp)
    800016ae:	2781                	sext.w	a5,a5
    800016b0:	e781                	bnez	a5,800016b8 <CPU_CntTrailZeros32+0x14>
    800016b2:	02000793          	li	a5,32
    800016b6:	a01d                	j	800016dc <CPU_CntTrailZeros32+0x38>
    800016b8:	47b2                	lw	a5,12(sp)
    800016ba:	40f007bb          	negw	a5,a5
    800016be:	2781                	sext.w	a5,a5
    800016c0:	4732                	lw	a4,12(sp)
    800016c2:	8ff9                	and	a5,a5,a4
    800016c4:	d63e                	sw	a5,44(sp)
    800016c6:	57b2                	lw	a5,44(sp)
    800016c8:	853e                	mv	a0,a5
    800016ca:	cffff0ef          	jal	800013c8 <CPU_CntLeadZeros32>
    800016ce:	f02a                	sd	a0,32(sp)
    800016d0:	477d                	li	a4,31
    800016d2:	7782                	ld	a5,32(sp)
    800016d4:	40f707b3          	sub	a5,a4,a5
    800016d8:	ec3e                	sd	a5,24(sp)
    800016da:	67e2                	ld	a5,24(sp)
    800016dc:	853e                	mv	a0,a5
    800016de:	70e2                	ld	ra,56(sp)
    800016e0:	6121                	add	sp,sp,64
    800016e2:	8082                	ret

00000000800016e4 <CPU_CntTrailZeros64>:
    800016e4:	7139                	add	sp,sp,-64
    800016e6:	fc06                	sd	ra,56(sp)
    800016e8:	e42a                	sd	a0,8(sp)
    800016ea:	67a2                	ld	a5,8(sp)
    800016ec:	e781                	bnez	a5,800016f4 <CPU_CntTrailZeros64+0x10>
    800016ee:	04000793          	li	a5,64
    800016f2:	a015                	j	80001716 <CPU_CntTrailZeros64+0x32>
    800016f4:	67a2                	ld	a5,8(sp)
    800016f6:	40f007b3          	neg	a5,a5
    800016fa:	6722                	ld	a4,8(sp)
    800016fc:	8ff9                	and	a5,a5,a4
    800016fe:	f43e                	sd	a5,40(sp)
    80001700:	7522                	ld	a0,40(sp)
    80001702:	d81ff0ef          	jal	80001482 <CPU_CntLeadZeros64>
    80001706:	f02a                	sd	a0,32(sp)
    80001708:	03f00713          	li	a4,63
    8000170c:	7782                	ld	a5,32(sp)
    8000170e:	40f707b3          	sub	a5,a4,a5
    80001712:	ec3e                	sd	a5,24(sp)
    80001714:	67e2                	ld	a5,24(sp)
    80001716:	853e                	mv	a0,a5
    80001718:	70e2                	ld	ra,56(sp)
    8000171a:	6121                	add	sp,sp,64
    8000171c:	8082                	ret

000000008000171e <CPU_PopCnt32>:
    8000171e:	1101                	add	sp,sp,-32
    80001720:	87aa                	mv	a5,a0
    80001722:	c63e                	sw	a5,12(sp)
    80001724:	47b2                	lw	a5,12(sp)
    80001726:	0017d79b          	srlw	a5,a5,0x1
    8000172a:	2781                	sext.w	a5,a5
    8000172c:	873e                	mv	a4,a5
    8000172e:	555557b7          	lui	a5,0x55555
    80001732:	55578793          	add	a5,a5,1365 # 55555555 <CPU_MSTATUS_MIE+0x5555554d>
    80001736:	8ff9                	and	a5,a5,a4
    80001738:	ce3e                	sw	a5,28(sp)
    8000173a:	47b2                	lw	a5,12(sp)
    8000173c:	873e                	mv	a4,a5
    8000173e:	47f2                	lw	a5,28(sp)
    80001740:	40f707bb          	subw	a5,a4,a5
    80001744:	cc3e                	sw	a5,24(sp)
    80001746:	47e2                	lw	a5,24(sp)
    80001748:	873e                	mv	a4,a5
    8000174a:	333337b7          	lui	a5,0x33333
    8000174e:	33378793          	add	a5,a5,819 # 33333333 <CPU_MSTATUS_MIE+0x3333332b>
    80001752:	8ff9                	and	a5,a5,a4
    80001754:	ca3e                	sw	a5,20(sp)
    80001756:	47e2                	lw	a5,24(sp)
    80001758:	0027d79b          	srlw	a5,a5,0x2
    8000175c:	2781                	sext.w	a5,a5
    8000175e:	873e                	mv	a4,a5
    80001760:	333337b7          	lui	a5,0x33333
    80001764:	33378793          	add	a5,a5,819 # 33333333 <CPU_MSTATUS_MIE+0x3333332b>
    80001768:	8ff9                	and	a5,a5,a4
    8000176a:	ce3e                	sw	a5,28(sp)
    8000176c:	47d2                	lw	a5,20(sp)
    8000176e:	873e                	mv	a4,a5
    80001770:	47f2                	lw	a5,28(sp)
    80001772:	9fb9                	addw	a5,a5,a4
    80001774:	cc3e                	sw	a5,24(sp)
    80001776:	47e2                	lw	a5,24(sp)
    80001778:	873e                	mv	a4,a5
    8000177a:	0f0f17b7          	lui	a5,0xf0f1
    8000177e:	f0f78793          	add	a5,a5,-241 # f0f0f0f <CPU_MSTATUS_MIE+0xf0f0f07>
    80001782:	8ff9                	and	a5,a5,a4
    80001784:	ca3e                	sw	a5,20(sp)
    80001786:	47e2                	lw	a5,24(sp)
    80001788:	0047d79b          	srlw	a5,a5,0x4
    8000178c:	2781                	sext.w	a5,a5
    8000178e:	873e                	mv	a4,a5
    80001790:	0f0f17b7          	lui	a5,0xf0f1
    80001794:	f0f78793          	add	a5,a5,-241 # f0f0f0f <CPU_MSTATUS_MIE+0xf0f0f07>
    80001798:	8ff9                	and	a5,a5,a4
    8000179a:	ce3e                	sw	a5,28(sp)
    8000179c:	47d2                	lw	a5,20(sp)
    8000179e:	873e                	mv	a4,a5
    800017a0:	47f2                	lw	a5,28(sp)
    800017a2:	9fb9                	addw	a5,a5,a4
    800017a4:	cc3e                	sw	a5,24(sp)
    800017a6:	47e2                	lw	a5,24(sp)
    800017a8:	873e                	mv	a4,a5
    800017aa:	87ba                	mv	a5,a4
    800017ac:	0087979b          	sllw	a5,a5,0x8
    800017b0:	9fb9                	addw	a5,a5,a4
    800017b2:	0107971b          	sllw	a4,a5,0x10
    800017b6:	9fb9                	addw	a5,a5,a4
    800017b8:	2781                	sext.w	a5,a5
    800017ba:	0187d79b          	srlw	a5,a5,0x18
    800017be:	cc3e                	sw	a5,24(sp)
    800017c0:	47e2                	lw	a5,24(sp)
    800017c2:	0ff7f793          	zext.b	a5,a5
    800017c6:	853e                	mv	a0,a5
    800017c8:	6105                	add	sp,sp,32
    800017ca:	8082                	ret

00000000800017cc <OSStartHighRdy>:
    800017cc:	42a1                	li	t0,8
    800017ce:	3002b073          	csrc	mstatus,t0
    800017d2:	43c000ef          	jal	80001c0e <OSTaskSwHook>
    800017d6:	4285                	li	t0,1
    800017d8:	0000a317          	auipc	t1,0xa
    800017dc:	13530313          	add	t1,t1,309 # 8000b90d <OSRunning>
    800017e0:	00530023          	sb	t0,0(t1)
    800017e4:	0000a297          	auipc	t0,0xa
    800017e8:	1ec28293          	add	t0,t0,492 # 8000b9d0 <OSTCBHighRdyPtr>
    800017ec:	0002b303          	ld	t1,0(t0)
    800017f0:	00033103          	ld	sp,0(t1)
    800017f4:	72ee                	ld	t0,248(sp)
    800017f6:	34129073          	csrw	mepc,t0
    800017fa:	6082                	ld	ra,0(sp)
    800017fc:	7282                	ld	t0,32(sp)
    800017fe:	7322                	ld	t1,40(sp)
    80001800:	73c2                	ld	t2,48(sp)
    80001802:	7462                	ld	s0,56(sp)
    80001804:	6486                	ld	s1,64(sp)
    80001806:	6526                	ld	a0,72(sp)
    80001808:	65c6                	ld	a1,80(sp)
    8000180a:	6666                	ld	a2,88(sp)
    8000180c:	7686                	ld	a3,96(sp)
    8000180e:	7726                	ld	a4,104(sp)
    80001810:	77c6                	ld	a5,112(sp)
    80001812:	7866                	ld	a6,120(sp)
    80001814:	688a                	ld	a7,128(sp)
    80001816:	692a                	ld	s2,136(sp)
    80001818:	69ca                	ld	s3,144(sp)
    8000181a:	6a6a                	ld	s4,152(sp)
    8000181c:	7a8a                	ld	s5,160(sp)
    8000181e:	7b2a                	ld	s6,168(sp)
    80001820:	7bca                	ld	s7,176(sp)
    80001822:	7c6a                	ld	s8,184(sp)
    80001824:	6c8e                	ld	s9,192(sp)
    80001826:	6d2e                	ld	s10,200(sp)
    80001828:	6dce                	ld	s11,208(sp)
    8000182a:	6e6e                	ld	t3,216(sp)
    8000182c:	7e8e                	ld	t4,224(sp)
    8000182e:	7f2e                	ld	t5,232(sp)
    80001830:	7fce                	ld	t6,240(sp)
    80001832:	6111                	add	sp,sp,256
    80001834:	34102ff3          	csrr	t6,mepc
    80001838:	42a1                	li	t0,8
    8000183a:	3002a073          	csrs	mstatus,t0
    8000183e:	000f8067          	jr	t6

0000000080001842 <OSCtxSw>:
    80001842:	42a1                	li	t0,8
    80001844:	3042a073          	csrs	mie,t0
    80001848:	4289                	li	t0,2
    8000184a:	34429073          	csrw	mip,t0
    8000184e:	8082                	ret

0000000080001850 <Software_IRQHandler>:
    80001850:	42a1                	li	t0,8
    80001852:	3002b073          	csrc	mstatus,t0
    80001856:	4289                	li	t0,2
    80001858:	3442b073          	csrc	mip,t0
    8000185c:	0000a297          	auipc	t0,0xa
    80001860:	16c28293          	add	t0,t0,364 # 8000b9c8 <OSTCBCurPtr>
    80001864:	0002b303          	ld	t1,0(t0)
    80001868:	00c33023          	sd	a2,0(t1)
    8000186c:	3a2000ef          	jal	80001c0e <OSTaskSwHook>
    80001870:	0000a297          	auipc	t0,0xa
    80001874:	0d328293          	add	t0,t0,211 # 8000b943 <OSPrioHighRdy>
    80001878:	00028303          	lb	t1,0(t0)
    8000187c:	0000a297          	auipc	t0,0xa
    80001880:	0c628293          	add	t0,t0,198 # 8000b942 <OSPrioCur>
    80001884:	00628023          	sb	t1,0(t0)
    80001888:	0000a297          	auipc	t0,0xa
    8000188c:	14828293          	add	t0,t0,328 # 8000b9d0 <OSTCBHighRdyPtr>
    80001890:	0002b303          	ld	t1,0(t0)
    80001894:	0000a297          	auipc	t0,0xa
    80001898:	13428293          	add	t0,t0,308 # 8000b9c8 <OSTCBCurPtr>
    8000189c:	0062b023          	sd	t1,0(t0)
    800018a0:	00033103          	ld	sp,0(t1)
    800018a4:	72ee                	ld	t0,248(sp)
    800018a6:	34129073          	csrw	mepc,t0
    800018aa:	6082                	ld	ra,0(sp)
    800018ac:	7282                	ld	t0,32(sp)
    800018ae:	7322                	ld	t1,40(sp)
    800018b0:	73c2                	ld	t2,48(sp)
    800018b2:	7462                	ld	s0,56(sp)
    800018b4:	6486                	ld	s1,64(sp)
    800018b6:	6526                	ld	a0,72(sp)
    800018b8:	65c6                	ld	a1,80(sp)
    800018ba:	6666                	ld	a2,88(sp)
    800018bc:	7686                	ld	a3,96(sp)
    800018be:	7726                	ld	a4,104(sp)
    800018c0:	77c6                	ld	a5,112(sp)
    800018c2:	7866                	ld	a6,120(sp)
    800018c4:	688a                	ld	a7,128(sp)
    800018c6:	692a                	ld	s2,136(sp)
    800018c8:	69ca                	ld	s3,144(sp)
    800018ca:	6a6a                	ld	s4,152(sp)
    800018cc:	7a8a                	ld	s5,160(sp)
    800018ce:	7b2a                	ld	s6,168(sp)
    800018d0:	7bca                	ld	s7,176(sp)
    800018d2:	7c6a                	ld	s8,184(sp)
    800018d4:	6c8e                	ld	s9,192(sp)
    800018d6:	6d2e                	ld	s10,200(sp)
    800018d8:	6dce                	ld	s11,208(sp)
    800018da:	6e6e                	ld	t3,216(sp)
    800018dc:	7e8e                	ld	t4,224(sp)
    800018de:	7f2e                	ld	t5,232(sp)
    800018e0:	7fce                	ld	t6,240(sp)
    800018e2:	6111                	add	sp,sp,256
    800018e4:	30200073          	mret

00000000800018e8 <OSIdleTaskHook>:
    800018e8:	1141                	add	sp,sp,-16
    800018ea:	e406                	sd	ra,8(sp)
    800018ec:	0000a797          	auipc	a5,0xa
    800018f0:	ffc78793          	add	a5,a5,-4 # 8000b8e8 <OS_AppIdleTaskHookPtr>
    800018f4:	639c                	ld	a5,0(a5)
    800018f6:	c799                	beqz	a5,80001904 <OSIdleTaskHook+0x1c>
    800018f8:	0000a797          	auipc	a5,0xa
    800018fc:	ff078793          	add	a5,a5,-16 # 8000b8e8 <OS_AppIdleTaskHookPtr>
    80001900:	639c                	ld	a5,0(a5)
    80001902:	9782                	jalr	a5
    80001904:	0001                	nop
    80001906:	60a2                	ld	ra,8(sp)
    80001908:	0141                	add	sp,sp,16
    8000190a:	8082                	ret

000000008000190c <OSInitHook>:
    8000190c:	0001                	nop
    8000190e:	8082                	ret

0000000080001910 <OSStatTaskHook>:
    80001910:	1141                	add	sp,sp,-16
    80001912:	e406                	sd	ra,8(sp)
    80001914:	0000a797          	auipc	a5,0xa
    80001918:	fdc78793          	add	a5,a5,-36 # 8000b8f0 <OS_AppStatTaskHookPtr>
    8000191c:	639c                	ld	a5,0(a5)
    8000191e:	c799                	beqz	a5,8000192c <OSStatTaskHook+0x1c>
    80001920:	0000a797          	auipc	a5,0xa
    80001924:	fd078793          	add	a5,a5,-48 # 8000b8f0 <OS_AppStatTaskHookPtr>
    80001928:	639c                	ld	a5,0(a5)
    8000192a:	9782                	jalr	a5
    8000192c:	0001                	nop
    8000192e:	60a2                	ld	ra,8(sp)
    80001930:	0141                	add	sp,sp,16
    80001932:	8082                	ret

0000000080001934 <OSTaskCreateHook>:
    80001934:	1101                	add	sp,sp,-32
    80001936:	ec06                	sd	ra,24(sp)
    80001938:	e42a                	sd	a0,8(sp)
    8000193a:	0000a797          	auipc	a5,0xa
    8000193e:	f9678793          	add	a5,a5,-106 # 8000b8d0 <OS_AppTaskCreateHookPtr>
    80001942:	639c                	ld	a5,0(a5)
    80001944:	cb81                	beqz	a5,80001954 <OSTaskCreateHook+0x20>
    80001946:	0000a797          	auipc	a5,0xa
    8000194a:	f8a78793          	add	a5,a5,-118 # 8000b8d0 <OS_AppTaskCreateHookPtr>
    8000194e:	639c                	ld	a5,0(a5)
    80001950:	6522                	ld	a0,8(sp)
    80001952:	9782                	jalr	a5
    80001954:	0001                	nop
    80001956:	60e2                	ld	ra,24(sp)
    80001958:	6105                	add	sp,sp,32
    8000195a:	8082                	ret

000000008000195c <OSTaskDelHook>:
    8000195c:	1101                	add	sp,sp,-32
    8000195e:	ec06                	sd	ra,24(sp)
    80001960:	e42a                	sd	a0,8(sp)
    80001962:	0000a797          	auipc	a5,0xa
    80001966:	f7678793          	add	a5,a5,-138 # 8000b8d8 <OS_AppTaskDelHookPtr>
    8000196a:	639c                	ld	a5,0(a5)
    8000196c:	cb81                	beqz	a5,8000197c <OSTaskDelHook+0x20>
    8000196e:	0000a797          	auipc	a5,0xa
    80001972:	f6a78793          	add	a5,a5,-150 # 8000b8d8 <OS_AppTaskDelHookPtr>
    80001976:	639c                	ld	a5,0(a5)
    80001978:	6522                	ld	a0,8(sp)
    8000197a:	9782                	jalr	a5
    8000197c:	0001                	nop
    8000197e:	60e2                	ld	ra,24(sp)
    80001980:	6105                	add	sp,sp,32
    80001982:	8082                	ret

0000000080001984 <OSTaskReturnHook>:
    80001984:	1101                	add	sp,sp,-32
    80001986:	ec06                	sd	ra,24(sp)
    80001988:	e42a                	sd	a0,8(sp)
    8000198a:	0000a797          	auipc	a5,0xa
    8000198e:	f5678793          	add	a5,a5,-170 # 8000b8e0 <OS_AppTaskReturnHookPtr>
    80001992:	639c                	ld	a5,0(a5)
    80001994:	cb81                	beqz	a5,800019a4 <OSTaskReturnHook+0x20>
    80001996:	0000a797          	auipc	a5,0xa
    8000199a:	f4a78793          	add	a5,a5,-182 # 8000b8e0 <OS_AppTaskReturnHookPtr>
    8000199e:	639c                	ld	a5,0(a5)
    800019a0:	6522                	ld	a0,8(sp)
    800019a2:	9782                	jalr	a5
    800019a4:	0001                	nop
    800019a6:	60e2                	ld	ra,24(sp)
    800019a8:	6105                	add	sp,sp,32
    800019aa:	8082                	ret

00000000800019ac <OSTaskStkInit>:
    800019ac:	7139                	add	sp,sp,-64
    800019ae:	f42a                	sd	a0,40(sp)
    800019b0:	f02e                	sd	a1,32(sp)
    800019b2:	ec32                	sd	a2,24(sp)
    800019b4:	e836                	sd	a3,16(sp)
    800019b6:	e43a                	sd	a4,8(sp)
    800019b8:	00f11323          	sh	a5,6(sp)
    800019bc:	67a2                	ld	a5,8(sp)
    800019be:	078e                	sll	a5,a5,0x3
    800019c0:	6762                	ld	a4,24(sp)
    800019c2:	97ba                	add	a5,a5,a4
    800019c4:	fc3e                	sd	a5,56(sp)
    800019c6:	7762                	ld	a4,56(sp)
    800019c8:	4785                	li	a5,1
    800019ca:	1782                	sll	a5,a5,0x20
    800019cc:	17c1                	add	a5,a5,-16
    800019ce:	8ff9                	and	a5,a5,a4
    800019d0:	fc3e                	sd	a5,56(sp)
    800019d2:	77e2                	ld	a5,56(sp)
    800019d4:	17e1                	add	a5,a5,-8
    800019d6:	fc3e                	sd	a5,56(sp)
    800019d8:	7722                	ld	a4,40(sp)
    800019da:	77e2                	ld	a5,56(sp)
    800019dc:	e398                	sd	a4,0(a5)
    800019de:	77e2                	ld	a5,56(sp)
    800019e0:	17e1                	add	a5,a5,-8
    800019e2:	fc3e                	sd	a5,56(sp)
    800019e4:	77e2                	ld	a5,56(sp)
    800019e6:	31313737          	lui	a4,0x31313
    800019ea:	13170713          	add	a4,a4,305 # 31313131 <CPU_MSTATUS_MIE+0x31313129>
    800019ee:	e398                	sd	a4,0(a5)
    800019f0:	77e2                	ld	a5,56(sp)
    800019f2:	17e1                	add	a5,a5,-8
    800019f4:	fc3e                	sd	a5,56(sp)
    800019f6:	77e2                	ld	a5,56(sp)
    800019f8:	30303737          	lui	a4,0x30303
    800019fc:	03070713          	add	a4,a4,48 # 30303030 <CPU_MSTATUS_MIE+0x30303028>
    80001a00:	e398                	sd	a4,0(a5)
    80001a02:	77e2                	ld	a5,56(sp)
    80001a04:	17e1                	add	a5,a5,-8
    80001a06:	fc3e                	sd	a5,56(sp)
    80001a08:	77e2                	ld	a5,56(sp)
    80001a0a:	29293737          	lui	a4,0x29293
    80001a0e:	92970713          	add	a4,a4,-1751 # 29292929 <CPU_MSTATUS_MIE+0x29292921>
    80001a12:	e398                	sd	a4,0(a5)
    80001a14:	77e2                	ld	a5,56(sp)
    80001a16:	17e1                	add	a5,a5,-8
    80001a18:	fc3e                	sd	a5,56(sp)
    80001a1a:	77e2                	ld	a5,56(sp)
    80001a1c:	28283737          	lui	a4,0x28283
    80001a20:	82870713          	add	a4,a4,-2008 # 28282828 <CPU_MSTATUS_MIE+0x28282820>
    80001a24:	e398                	sd	a4,0(a5)
    80001a26:	77e2                	ld	a5,56(sp)
    80001a28:	17e1                	add	a5,a5,-8
    80001a2a:	fc3e                	sd	a5,56(sp)
    80001a2c:	77e2                	ld	a5,56(sp)
    80001a2e:	27272737          	lui	a4,0x27272
    80001a32:	72770713          	add	a4,a4,1831 # 27272727 <CPU_MSTATUS_MIE+0x2727271f>
    80001a36:	e398                	sd	a4,0(a5)
    80001a38:	77e2                	ld	a5,56(sp)
    80001a3a:	17e1                	add	a5,a5,-8
    80001a3c:	fc3e                	sd	a5,56(sp)
    80001a3e:	77e2                	ld	a5,56(sp)
    80001a40:	26262737          	lui	a4,0x26262
    80001a44:	62670713          	add	a4,a4,1574 # 26262626 <CPU_MSTATUS_MIE+0x2626261e>
    80001a48:	e398                	sd	a4,0(a5)
    80001a4a:	77e2                	ld	a5,56(sp)
    80001a4c:	17e1                	add	a5,a5,-8
    80001a4e:	fc3e                	sd	a5,56(sp)
    80001a50:	77e2                	ld	a5,56(sp)
    80001a52:	25252737          	lui	a4,0x25252
    80001a56:	52570713          	add	a4,a4,1317 # 25252525 <CPU_MSTATUS_MIE+0x2525251d>
    80001a5a:	e398                	sd	a4,0(a5)
    80001a5c:	77e2                	ld	a5,56(sp)
    80001a5e:	17e1                	add	a5,a5,-8
    80001a60:	fc3e                	sd	a5,56(sp)
    80001a62:	77e2                	ld	a5,56(sp)
    80001a64:	24242737          	lui	a4,0x24242
    80001a68:	42470713          	add	a4,a4,1060 # 24242424 <CPU_MSTATUS_MIE+0x2424241c>
    80001a6c:	e398                	sd	a4,0(a5)
    80001a6e:	77e2                	ld	a5,56(sp)
    80001a70:	17e1                	add	a5,a5,-8
    80001a72:	fc3e                	sd	a5,56(sp)
    80001a74:	77e2                	ld	a5,56(sp)
    80001a76:	23232737          	lui	a4,0x23232
    80001a7a:	32370713          	add	a4,a4,803 # 23232323 <CPU_MSTATUS_MIE+0x2323231b>
    80001a7e:	e398                	sd	a4,0(a5)
    80001a80:	77e2                	ld	a5,56(sp)
    80001a82:	17e1                	add	a5,a5,-8
    80001a84:	fc3e                	sd	a5,56(sp)
    80001a86:	77e2                	ld	a5,56(sp)
    80001a88:	22222737          	lui	a4,0x22222
    80001a8c:	22270713          	add	a4,a4,546 # 22222222 <CPU_MSTATUS_MIE+0x2222221a>
    80001a90:	e398                	sd	a4,0(a5)
    80001a92:	77e2                	ld	a5,56(sp)
    80001a94:	17e1                	add	a5,a5,-8
    80001a96:	fc3e                	sd	a5,56(sp)
    80001a98:	77e2                	ld	a5,56(sp)
    80001a9a:	21212737          	lui	a4,0x21212
    80001a9e:	12170713          	add	a4,a4,289 # 21212121 <CPU_MSTATUS_MIE+0x21212119>
    80001aa2:	e398                	sd	a4,0(a5)
    80001aa4:	77e2                	ld	a5,56(sp)
    80001aa6:	17e1                	add	a5,a5,-8
    80001aa8:	fc3e                	sd	a5,56(sp)
    80001aaa:	77e2                	ld	a5,56(sp)
    80001aac:	20202737          	lui	a4,0x20202
    80001ab0:	02070713          	add	a4,a4,32 # 20202020 <CPU_MSTATUS_MIE+0x20202018>
    80001ab4:	e398                	sd	a4,0(a5)
    80001ab6:	77e2                	ld	a5,56(sp)
    80001ab8:	17e1                	add	a5,a5,-8
    80001aba:	fc3e                	sd	a5,56(sp)
    80001abc:	77e2                	ld	a5,56(sp)
    80001abe:	19192737          	lui	a4,0x19192
    80001ac2:	91970713          	add	a4,a4,-1767 # 19191919 <CPU_MSTATUS_MIE+0x19191911>
    80001ac6:	e398                	sd	a4,0(a5)
    80001ac8:	77e2                	ld	a5,56(sp)
    80001aca:	17e1                	add	a5,a5,-8
    80001acc:	fc3e                	sd	a5,56(sp)
    80001ace:	77e2                	ld	a5,56(sp)
    80001ad0:	18182737          	lui	a4,0x18182
    80001ad4:	81870713          	add	a4,a4,-2024 # 18181818 <CPU_MSTATUS_MIE+0x18181810>
    80001ad8:	e398                	sd	a4,0(a5)
    80001ada:	77e2                	ld	a5,56(sp)
    80001adc:	17e1                	add	a5,a5,-8
    80001ade:	fc3e                	sd	a5,56(sp)
    80001ae0:	77e2                	ld	a5,56(sp)
    80001ae2:	17171737          	lui	a4,0x17171
    80001ae6:	71770713          	add	a4,a4,1815 # 17171717 <CPU_MSTATUS_MIE+0x1717170f>
    80001aea:	e398                	sd	a4,0(a5)
    80001aec:	77e2                	ld	a5,56(sp)
    80001aee:	17e1                	add	a5,a5,-8
    80001af0:	fc3e                	sd	a5,56(sp)
    80001af2:	77e2                	ld	a5,56(sp)
    80001af4:	16161737          	lui	a4,0x16161
    80001af8:	61670713          	add	a4,a4,1558 # 16161616 <CPU_MSTATUS_MIE+0x1616160e>
    80001afc:	e398                	sd	a4,0(a5)
    80001afe:	77e2                	ld	a5,56(sp)
    80001b00:	17e1                	add	a5,a5,-8
    80001b02:	fc3e                	sd	a5,56(sp)
    80001b04:	77e2                	ld	a5,56(sp)
    80001b06:	15151737          	lui	a4,0x15151
    80001b0a:	51570713          	add	a4,a4,1301 # 15151515 <CPU_MSTATUS_MIE+0x1515150d>
    80001b0e:	e398                	sd	a4,0(a5)
    80001b10:	77e2                	ld	a5,56(sp)
    80001b12:	17e1                	add	a5,a5,-8
    80001b14:	fc3e                	sd	a5,56(sp)
    80001b16:	77e2                	ld	a5,56(sp)
    80001b18:	14141737          	lui	a4,0x14141
    80001b1c:	41470713          	add	a4,a4,1044 # 14141414 <CPU_MSTATUS_MIE+0x1414140c>
    80001b20:	e398                	sd	a4,0(a5)
    80001b22:	77e2                	ld	a5,56(sp)
    80001b24:	17e1                	add	a5,a5,-8
    80001b26:	fc3e                	sd	a5,56(sp)
    80001b28:	77e2                	ld	a5,56(sp)
    80001b2a:	13131737          	lui	a4,0x13131
    80001b2e:	31370713          	add	a4,a4,787 # 13131313 <CPU_MSTATUS_MIE+0x1313130b>
    80001b32:	e398                	sd	a4,0(a5)
    80001b34:	77e2                	ld	a5,56(sp)
    80001b36:	17e1                	add	a5,a5,-8
    80001b38:	fc3e                	sd	a5,56(sp)
    80001b3a:	77e2                	ld	a5,56(sp)
    80001b3c:	12121737          	lui	a4,0x12121
    80001b40:	21270713          	add	a4,a4,530 # 12121212 <CPU_MSTATUS_MIE+0x1212120a>
    80001b44:	e398                	sd	a4,0(a5)
    80001b46:	77e2                	ld	a5,56(sp)
    80001b48:	17e1                	add	a5,a5,-8
    80001b4a:	fc3e                	sd	a5,56(sp)
    80001b4c:	77e2                	ld	a5,56(sp)
    80001b4e:	11111737          	lui	a4,0x11111
    80001b52:	11170713          	add	a4,a4,273 # 11111111 <CPU_MSTATUS_MIE+0x11111109>
    80001b56:	e398                	sd	a4,0(a5)
    80001b58:	77e2                	ld	a5,56(sp)
    80001b5a:	17e1                	add	a5,a5,-8
    80001b5c:	fc3e                	sd	a5,56(sp)
    80001b5e:	7702                	ld	a4,32(sp)
    80001b60:	77e2                	ld	a5,56(sp)
    80001b62:	e398                	sd	a4,0(a5)
    80001b64:	77e2                	ld	a5,56(sp)
    80001b66:	17e1                	add	a5,a5,-8
    80001b68:	fc3e                	sd	a5,56(sp)
    80001b6a:	77e2                	ld	a5,56(sp)
    80001b6c:	09091737          	lui	a4,0x9091
    80001b70:	90970713          	add	a4,a4,-1783 # 9090909 <CPU_MSTATUS_MIE+0x9090901>
    80001b74:	e398                	sd	a4,0(a5)
    80001b76:	77e2                	ld	a5,56(sp)
    80001b78:	17e1                	add	a5,a5,-8
    80001b7a:	fc3e                	sd	a5,56(sp)
    80001b7c:	77e2                	ld	a5,56(sp)
    80001b7e:	08081737          	lui	a4,0x8081
    80001b82:	80870713          	add	a4,a4,-2040 # 8080808 <CPU_MSTATUS_MIE+0x8080800>
    80001b86:	e398                	sd	a4,0(a5)
    80001b88:	77e2                	ld	a5,56(sp)
    80001b8a:	17e1                	add	a5,a5,-8
    80001b8c:	fc3e                	sd	a5,56(sp)
    80001b8e:	77e2                	ld	a5,56(sp)
    80001b90:	07070737          	lui	a4,0x7070
    80001b94:	70770713          	add	a4,a4,1799 # 7070707 <CPU_MSTATUS_MIE+0x70706ff>
    80001b98:	e398                	sd	a4,0(a5)
    80001b9a:	77e2                	ld	a5,56(sp)
    80001b9c:	17e1                	add	a5,a5,-8
    80001b9e:	fc3e                	sd	a5,56(sp)
    80001ba0:	77e2                	ld	a5,56(sp)
    80001ba2:	06060737          	lui	a4,0x6060
    80001ba6:	60670713          	add	a4,a4,1542 # 6060606 <CPU_MSTATUS_MIE+0x60605fe>
    80001baa:	e398                	sd	a4,0(a5)
    80001bac:	77e2                	ld	a5,56(sp)
    80001bae:	17e1                	add	a5,a5,-8
    80001bb0:	fc3e                	sd	a5,56(sp)
    80001bb2:	77e2                	ld	a5,56(sp)
    80001bb4:	05050737          	lui	a4,0x5050
    80001bb8:	50570713          	add	a4,a4,1285 # 5050505 <CPU_MSTATUS_MIE+0x50504fd>
    80001bbc:	e398                	sd	a4,0(a5)
    80001bbe:	77e2                	ld	a5,56(sp)
    80001bc0:	17e1                	add	a5,a5,-8
    80001bc2:	fc3e                	sd	a5,56(sp)
    80001bc4:	77e2                	ld	a5,56(sp)
    80001bc6:	04040737          	lui	a4,0x4040
    80001bca:	40470713          	add	a4,a4,1028 # 4040404 <CPU_MSTATUS_MIE+0x40403fc>
    80001bce:	e398                	sd	a4,0(a5)
    80001bd0:	77e2                	ld	a5,56(sp)
    80001bd2:	17e1                	add	a5,a5,-8
    80001bd4:	fc3e                	sd	a5,56(sp)
    80001bd6:	77e2                	ld	a5,56(sp)
    80001bd8:	03030737          	lui	a4,0x3030
    80001bdc:	30370713          	add	a4,a4,771 # 3030303 <CPU_MSTATUS_MIE+0x30302fb>
    80001be0:	e398                	sd	a4,0(a5)
    80001be2:	77e2                	ld	a5,56(sp)
    80001be4:	17e1                	add	a5,a5,-8
    80001be6:	fc3e                	sd	a5,56(sp)
    80001be8:	77e2                	ld	a5,56(sp)
    80001bea:	02020737          	lui	a4,0x2020
    80001bee:	20270713          	add	a4,a4,514 # 2020202 <CPU_MSTATUS_MIE+0x20201fa>
    80001bf2:	e398                	sd	a4,0(a5)
    80001bf4:	77e2                	ld	a5,56(sp)
    80001bf6:	17e1                	add	a5,a5,-8
    80001bf8:	fc3e                	sd	a5,56(sp)
    80001bfa:	00003717          	auipc	a4,0x3
    80001bfe:	02270713          	add	a4,a4,34 # 80004c1c <OS_TaskReturn>
    80001c02:	77e2                	ld	a5,56(sp)
    80001c04:	e398                	sd	a4,0(a5)
    80001c06:	77e2                	ld	a5,56(sp)
    80001c08:	853e                	mv	a0,a5
    80001c0a:	6121                	add	sp,sp,64
    80001c0c:	8082                	ret

0000000080001c0e <OSTaskSwHook>:
    80001c0e:	1101                	add	sp,sp,-32
    80001c10:	ec06                	sd	ra,24(sp)
    80001c12:	0000a797          	auipc	a5,0xa
    80001c16:	ce678793          	add	a5,a5,-794 # 8000b8f8 <OS_AppTaskSwHookPtr>
    80001c1a:	639c                	ld	a5,0(a5)
    80001c1c:	c799                	beqz	a5,80001c2a <OSTaskSwHook+0x1c>
    80001c1e:	0000a797          	auipc	a5,0xa
    80001c22:	cda78793          	add	a5,a5,-806 # 8000b8f8 <OS_AppTaskSwHookPtr>
    80001c26:	639c                	ld	a5,0(a5)
    80001c28:	9782                	jalr	a5
    80001c2a:	c602                	sw	zero,12(sp)
    80001c2c:	0000a797          	auipc	a5,0xa
    80001c30:	d9c78793          	add	a5,a5,-612 # 8000b9c8 <OSTCBCurPtr>
    80001c34:	6398                	ld	a4,0(a5)
    80001c36:	0000a797          	auipc	a5,0xa
    80001c3a:	d9a78793          	add	a5,a5,-614 # 8000b9d0 <OSTCBHighRdyPtr>
    80001c3e:	639c                	ld	a5,0(a5)
    80001c40:	04f70b63          	beq	a4,a5,80001c96 <OSTaskSwHook+0x88>
    80001c44:	0000a797          	auipc	a5,0xa
    80001c48:	d8478793          	add	a5,a5,-636 # 8000b9c8 <OSTCBCurPtr>
    80001c4c:	639c                	ld	a5,0(a5)
    80001c4e:	0f07a703          	lw	a4,240(a5)
    80001c52:	0000a797          	auipc	a5,0xa
    80001c56:	d7678793          	add	a5,a5,-650 # 8000b9c8 <OSTCBCurPtr>
    80001c5a:	639c                	ld	a5,0(a5)
    80001c5c:	46b2                	lw	a3,12(sp)
    80001c5e:	40e6873b          	subw	a4,a3,a4
    80001c62:	2701                	sext.w	a4,a4
    80001c64:	0ee7a623          	sw	a4,236(a5)
    80001c68:	0000a797          	auipc	a5,0xa
    80001c6c:	d6078793          	add	a5,a5,-672 # 8000b9c8 <OSTCBCurPtr>
    80001c70:	639c                	ld	a5,0(a5)
    80001c72:	0f47a683          	lw	a3,244(a5)
    80001c76:	0000a797          	auipc	a5,0xa
    80001c7a:	d5278793          	add	a5,a5,-686 # 8000b9c8 <OSTCBCurPtr>
    80001c7e:	639c                	ld	a5,0(a5)
    80001c80:	0ec7a703          	lw	a4,236(a5)
    80001c84:	0000a797          	auipc	a5,0xa
    80001c88:	d4478793          	add	a5,a5,-700 # 8000b9c8 <OSTCBCurPtr>
    80001c8c:	639c                	ld	a5,0(a5)
    80001c8e:	9f35                	addw	a4,a4,a3
    80001c90:	2701                	sext.w	a4,a4
    80001c92:	0ee7aa23          	sw	a4,244(a5)
    80001c96:	0000a797          	auipc	a5,0xa
    80001c9a:	d3a78793          	add	a5,a5,-710 # 8000b9d0 <OSTCBHighRdyPtr>
    80001c9e:	639c                	ld	a5,0(a5)
    80001ca0:	4732                	lw	a4,12(sp)
    80001ca2:	0ee7a823          	sw	a4,240(a5)
    80001ca6:	0001                	nop
    80001ca8:	60e2                	ld	ra,24(sp)
    80001caa:	6105                	add	sp,sp,32
    80001cac:	8082                	ret

0000000080001cae <OSTimeTickHook>:
    80001cae:	1141                	add	sp,sp,-16
    80001cb0:	e406                	sd	ra,8(sp)
    80001cb2:	0000a797          	auipc	a5,0xa
    80001cb6:	c4e78793          	add	a5,a5,-946 # 8000b900 <OS_AppTimeTickHookPtr>
    80001cba:	639c                	ld	a5,0(a5)
    80001cbc:	c799                	beqz	a5,80001cca <OSTimeTickHook+0x1c>
    80001cbe:	0000a797          	auipc	a5,0xa
    80001cc2:	c4278793          	add	a5,a5,-958 # 8000b900 <OS_AppTimeTickHookPtr>
    80001cc6:	639c                	ld	a5,0(a5)
    80001cc8:	9782                	jalr	a5
    80001cca:	0001                	nop
    80001ccc:	60a2                	ld	ra,8(sp)
    80001cce:	0141                	add	sp,sp,16
    80001cd0:	8082                	ret

0000000080001cd2 <SysTick_Handler>:
    80001cd2:	1101                	add	sp,sp,-32
    80001cd4:	ec06                	sd	ra,24(sp)
    80001cd6:	e402                	sd	zero,8(sp)
    80001cd8:	e36ff0ef          	jal	8000130e <CPU_SR_Save>
    80001cdc:	e42a                	sd	a0,8(sp)
    80001cde:	2f0030ef          	jal	80004fce <OSIntEnter>
    80001ce2:	6522                	ld	a0,8(sp)
    80001ce4:	e36ff0ef          	jal	8000131a <CPU_SR_Restore>
    80001ce8:	3e7050ef          	jal	800078ce <OSTimeTick>
    80001cec:	334030ef          	jal	80005020 <OSIntExit>
    80001cf0:	0001                	nop
    80001cf2:	60e2                	ld	ra,24(sp)
    80001cf4:	6105                	add	sp,sp,32
    80001cf6:	8082                	ret

0000000080001cf8 <OSSemCreate>:
    80001cf8:	7139                	add	sp,sp,-64
    80001cfa:	fc06                	sd	ra,56(sp)
    80001cfc:	ec2a                	sd	a0,24(sp)
    80001cfe:	e82e                	sd	a1,16(sp)
    80001d00:	87b2                	mv	a5,a2
    80001d02:	e036                	sd	a3,0(sp)
    80001d04:	c63e                	sw	a5,12(sp)
    80001d06:	f402                	sd	zero,40(sp)
    80001d08:	0000a797          	auipc	a5,0xa
    80001d0c:	c0478793          	add	a5,a5,-1020 # 8000b90c <OSIntNestingCtr>
    80001d10:	0007c783          	lbu	a5,0(a5)
    80001d14:	c799                	beqz	a5,80001d22 <OSSemCreate+0x2a>
    80001d16:	6782                	ld	a5,0(sp)
    80001d18:	670d                	lui	a4,0x3
    80001d1a:	ee170713          	add	a4,a4,-287 # 2ee1 <CPU_MSTATUS_MIE+0x2ed9>
    80001d1e:	c398                	sw	a4,0(a5)
    80001d20:	a841                	j	80001db0 <OSSemCreate+0xb8>
    80001d22:	67e2                	ld	a5,24(sp)
    80001d24:	e799                	bnez	a5,80001d32 <OSSemCreate+0x3a>
    80001d26:	6782                	ld	a5,0(sp)
    80001d28:	6719                	lui	a4,0x6
    80001d2a:	dc370713          	add	a4,a4,-573 # 5dc3 <CPU_MSTATUS_MIE+0x5dbb>
    80001d2e:	c398                	sw	a4,0(a5)
    80001d30:	a041                	j	80001db0 <OSSemCreate+0xb8>
    80001d32:	ddcff0ef          	jal	8000130e <CPU_SR_Save>
    80001d36:	f42a                	sd	a0,40(sp)
    80001d38:	67e2                	ld	a5,24(sp)
    80001d3a:	439c                	lw	a5,0(a5)
    80001d3c:	873e                	mv	a4,a5
    80001d3e:	414d47b7          	lui	a5,0x414d4
    80001d42:	55378793          	add	a5,a5,1363 # 414d4553 <CPU_MSTATUS_MIE+0x414d454b>
    80001d46:	00f71b63          	bne	a4,a5,80001d5c <OSSemCreate+0x64>
    80001d4a:	7522                	ld	a0,40(sp)
    80001d4c:	dceff0ef          	jal	8000131a <CPU_SR_Restore>
    80001d50:	6782                	ld	a5,0(sp)
    80001d52:	6719                	lui	a4,0x6
    80001d54:	dc170713          	add	a4,a4,-575 # 5dc1 <CPU_MSTATUS_MIE+0x5db9>
    80001d58:	c398                	sw	a4,0(a5)
    80001d5a:	a899                	j	80001db0 <OSSemCreate+0xb8>
    80001d5c:	67e2                	ld	a5,24(sp)
    80001d5e:	414d4737          	lui	a4,0x414d4
    80001d62:	55370713          	add	a4,a4,1363 # 414d4553 <CPU_MSTATUS_MIE+0x414d454b>
    80001d66:	c398                	sw	a4,0(a5)
    80001d68:	67e2                	ld	a5,24(sp)
    80001d6a:	4732                	lw	a4,12(sp)
    80001d6c:	c3b8                	sw	a4,64(a5)
    80001d6e:	67e2                	ld	a5,24(sp)
    80001d70:	6742                	ld	a4,16(sp)
    80001d72:	e798                	sd	a4,8(a5)
    80001d74:	67e2                	ld	a5,24(sp)
    80001d76:	07c1                	add	a5,a5,16
    80001d78:	853e                	mv	a0,a5
    80001d7a:	381030ef          	jal	800058fa <OS_PendListInit>
    80001d7e:	6562                	ld	a0,24(sp)
    80001d80:	70a000ef          	jal	8000248a <OS_SemDbgListAdd>
    80001d84:	0000a797          	auipc	a5,0xa
    80001d88:	bec78793          	add	a5,a5,-1044 # 8000b970 <OSSemQty>
    80001d8c:	0007d783          	lhu	a5,0(a5)
    80001d90:	2785                	addw	a5,a5,1
    80001d92:	03079713          	sll	a4,a5,0x30
    80001d96:	9341                	srl	a4,a4,0x30
    80001d98:	0000a797          	auipc	a5,0xa
    80001d9c:	bd878793          	add	a5,a5,-1064 # 8000b970 <OSSemQty>
    80001da0:	00e79023          	sh	a4,0(a5)
    80001da4:	7522                	ld	a0,40(sp)
    80001da6:	d74ff0ef          	jal	8000131a <CPU_SR_Restore>
    80001daa:	6782                	ld	a5,0(sp)
    80001dac:	0007a023          	sw	zero,0(a5)
    80001db0:	70e2                	ld	ra,56(sp)
    80001db2:	6121                	add	sp,sp,64
    80001db4:	8082                	ret

0000000080001db6 <OSSemDel>:
    80001db6:	711d                	add	sp,sp,-96
    80001db8:	ec86                	sd	ra,88(sp)
    80001dba:	ec2a                	sd	a0,24(sp)
    80001dbc:	87ae                	mv	a5,a1
    80001dbe:	e432                	sd	a2,8(sp)
    80001dc0:	00f11b23          	sh	a5,22(sp)
    80001dc4:	e082                	sd	zero,64(sp)
    80001dc6:	0000a797          	auipc	a5,0xa
    80001dca:	b4678793          	add	a5,a5,-1210 # 8000b90c <OSIntNestingCtr>
    80001dce:	0007c783          	lbu	a5,0(a5)
    80001dd2:	cb81                	beqz	a5,80001de2 <OSSemDel+0x2c>
    80001dd4:	67a2                	ld	a5,8(sp)
    80001dd6:	670d                	lui	a4,0x3
    80001dd8:	2c970713          	add	a4,a4,713 # 32c9 <CPU_MSTATUS_MIE+0x32c1>
    80001ddc:	c398                	sw	a4,0(a5)
    80001dde:	4781                	li	a5,0
    80001de0:	a291                	j	80001f24 <OSSemDel+0x16e>
    80001de2:	0000a797          	auipc	a5,0xa
    80001de6:	b2b78793          	add	a5,a5,-1237 # 8000b90d <OSRunning>
    80001dea:	0007c783          	lbu	a5,0(a5)
    80001dee:	873e                	mv	a4,a5
    80001df0:	4785                	li	a5,1
    80001df2:	00f70963          	beq	a4,a5,80001e04 <OSSemDel+0x4e>
    80001df6:	67a2                	ld	a5,8(sp)
    80001df8:	6719                	lui	a4,0x6
    80001dfa:	e8970713          	add	a4,a4,-375 # 5e89 <CPU_MSTATUS_MIE+0x5e81>
    80001dfe:	c398                	sw	a4,0(a5)
    80001e00:	4781                	li	a5,0
    80001e02:	a20d                	j	80001f24 <OSSemDel+0x16e>
    80001e04:	67e2                	ld	a5,24(sp)
    80001e06:	eb81                	bnez	a5,80001e16 <OSSemDel+0x60>
    80001e08:	67a2                	ld	a5,8(sp)
    80001e0a:	6719                	lui	a4,0x6
    80001e0c:	dc370713          	add	a4,a4,-573 # 5dc3 <CPU_MSTATUS_MIE+0x5dbb>
    80001e10:	c398                	sw	a4,0(a5)
    80001e12:	4781                	li	a5,0
    80001e14:	aa01                	j	80001f24 <OSSemDel+0x16e>
    80001e16:	67e2                	ld	a5,24(sp)
    80001e18:	439c                	lw	a5,0(a5)
    80001e1a:	873e                	mv	a4,a5
    80001e1c:	414d47b7          	lui	a5,0x414d4
    80001e20:	55378793          	add	a5,a5,1363 # 414d4553 <CPU_MSTATUS_MIE+0x414d454b>
    80001e24:	00f70963          	beq	a4,a5,80001e36 <OSSemDel+0x80>
    80001e28:	67a2                	ld	a5,8(sp)
    80001e2a:	6719                	lui	a4,0x6
    80001e2c:	dc470713          	add	a4,a4,-572 # 5dc4 <CPU_MSTATUS_MIE+0x5dbc>
    80001e30:	c398                	sw	a4,0(a5)
    80001e32:	4781                	li	a5,0
    80001e34:	a8c5                	j	80001f24 <OSSemDel+0x16e>
    80001e36:	cd8ff0ef          	jal	8000130e <CPU_SR_Save>
    80001e3a:	e0aa                	sd	a0,64(sp)
    80001e3c:	67e2                	ld	a5,24(sp)
    80001e3e:	07c1                	add	a5,a5,16
    80001e40:	fc3e                	sd	a5,56(sp)
    80001e42:	04011723          	sh	zero,78(sp)
    80001e46:	01615783          	lhu	a5,22(sp)
    80001e4a:	2781                	sext.w	a5,a5
    80001e4c:	c791                	beqz	a5,80001e58 <OSSemDel+0xa2>
    80001e4e:	873e                	mv	a4,a5
    80001e50:	4785                	li	a5,1
    80001e52:	04f70c63          	beq	a4,a5,80001eaa <OSSemDel+0xf4>
    80001e56:	a865                	j	80001f0e <OSSemDel+0x158>
    80001e58:	77e2                	ld	a5,56(sp)
    80001e5a:	639c                	ld	a5,0(a5)
    80001e5c:	ef95                	bnez	a5,80001e98 <OSSemDel+0xe2>
    80001e5e:	6562                	ld	a0,24(sp)
    80001e60:	682000ef          	jal	800024e2 <OS_SemDbgListRemove>
    80001e64:	0000a797          	auipc	a5,0xa
    80001e68:	b0c78793          	add	a5,a5,-1268 # 8000b970 <OSSemQty>
    80001e6c:	0007d783          	lhu	a5,0(a5)
    80001e70:	37fd                	addw	a5,a5,-1
    80001e72:	03079713          	sll	a4,a5,0x30
    80001e76:	9341                	srl	a4,a4,0x30
    80001e78:	0000a797          	auipc	a5,0xa
    80001e7c:	af878793          	add	a5,a5,-1288 # 8000b970 <OSSemQty>
    80001e80:	00e79023          	sh	a4,0(a5)
    80001e84:	6562                	ld	a0,24(sp)
    80001e86:	5ce000ef          	jal	80002454 <OS_SemClr>
    80001e8a:	6506                	ld	a0,64(sp)
    80001e8c:	c8eff0ef          	jal	8000131a <CPU_SR_Restore>
    80001e90:	67a2                	ld	a5,8(sp)
    80001e92:	0007a023          	sw	zero,0(a5)
    80001e96:	a069                	j	80001f20 <OSSemDel+0x16a>
    80001e98:	6506                	ld	a0,64(sp)
    80001e9a:	c80ff0ef          	jal	8000131a <CPU_SR_Restore>
    80001e9e:	67a2                	ld	a5,8(sp)
    80001ea0:	671d                	lui	a4,0x7
    80001ea2:	15f70713          	add	a4,a4,351 # 715f <CPU_MSTATUS_MIE+0x7157>
    80001ea6:	c398                	sw	a4,0(a5)
    80001ea8:	a8a5                	j	80001f20 <OSSemDel+0x16a>
    80001eaa:	da02                	sw	zero,52(sp)
    80001eac:	a839                	j	80001eca <OSSemDel+0x114>
    80001eae:	77e2                	ld	a5,56(sp)
    80001eb0:	639c                	ld	a5,0(a5)
    80001eb2:	f43e                	sd	a5,40(sp)
    80001eb4:	57d2                	lw	a5,52(sp)
    80001eb6:	4609                	li	a2,2
    80001eb8:	85be                	mv	a1,a5
    80001eba:	7522                	ld	a0,40(sp)
    80001ebc:	081030ef          	jal	8000573c <OS_PendAbort>
    80001ec0:	04e15783          	lhu	a5,78(sp)
    80001ec4:	2785                	addw	a5,a5,1
    80001ec6:	04f11723          	sh	a5,78(sp)
    80001eca:	77e2                	ld	a5,56(sp)
    80001ecc:	639c                	ld	a5,0(a5)
    80001ece:	f3e5                	bnez	a5,80001eae <OSSemDel+0xf8>
    80001ed0:	6562                	ld	a0,24(sp)
    80001ed2:	610000ef          	jal	800024e2 <OS_SemDbgListRemove>
    80001ed6:	0000a797          	auipc	a5,0xa
    80001eda:	a9a78793          	add	a5,a5,-1382 # 8000b970 <OSSemQty>
    80001ede:	0007d783          	lhu	a5,0(a5)
    80001ee2:	37fd                	addw	a5,a5,-1
    80001ee4:	03079713          	sll	a4,a5,0x30
    80001ee8:	9341                	srl	a4,a4,0x30
    80001eea:	0000a797          	auipc	a5,0xa
    80001eee:	a8678793          	add	a5,a5,-1402 # 8000b970 <OSSemQty>
    80001ef2:	00e79023          	sh	a4,0(a5)
    80001ef6:	6562                	ld	a0,24(sp)
    80001ef8:	55c000ef          	jal	80002454 <OS_SemClr>
    80001efc:	6506                	ld	a0,64(sp)
    80001efe:	c1cff0ef          	jal	8000131a <CPU_SR_Restore>
    80001f02:	244030ef          	jal	80005146 <OSSched>
    80001f06:	67a2                	ld	a5,8(sp)
    80001f08:	0007a023          	sw	zero,0(a5)
    80001f0c:	a811                	j	80001f20 <OSSemDel+0x16a>
    80001f0e:	6506                	ld	a0,64(sp)
    80001f10:	c0aff0ef          	jal	8000131a <CPU_SR_Restore>
    80001f14:	67a2                	ld	a5,8(sp)
    80001f16:	6719                	lui	a4,0x6
    80001f18:	e2570713          	add	a4,a4,-475 # 5e25 <CPU_MSTATUS_MIE+0x5e1d>
    80001f1c:	c398                	sw	a4,0(a5)
    80001f1e:	0001                	nop
    80001f20:	04e15783          	lhu	a5,78(sp)
    80001f24:	853e                	mv	a0,a5
    80001f26:	60e6                	ld	ra,88(sp)
    80001f28:	6125                	add	sp,sp,96
    80001f2a:	8082                	ret

0000000080001f2c <OSSemPend>:
    80001f2c:	7139                	add	sp,sp,-64
    80001f2e:	fc06                	sd	ra,56(sp)
    80001f30:	ec2a                	sd	a0,24(sp)
    80001f32:	87ae                	mv	a5,a1
    80001f34:	e436                	sd	a3,8(sp)
    80001f36:	e03a                	sd	a4,0(sp)
    80001f38:	ca3e                	sw	a5,20(sp)
    80001f3a:	87b2                	mv	a5,a2
    80001f3c:	00f11923          	sh	a5,18(sp)
    80001f40:	f402                	sd	zero,40(sp)
    80001f42:	0000a797          	auipc	a5,0xa
    80001f46:	9ca78793          	add	a5,a5,-1590 # 8000b90c <OSIntNestingCtr>
    80001f4a:	0007c783          	lbu	a5,0(a5)
    80001f4e:	cf81                	beqz	a5,80001f66 <OSSemPend+0x3a>
    80001f50:	01211783          	lh	a5,18(sp)
    80001f54:	0007c963          	bltz	a5,80001f66 <OSSemPend+0x3a>
    80001f58:	6782                	ld	a5,0(sp)
    80001f5a:	6719                	lui	a4,0x6
    80001f5c:	1ae70713          	add	a4,a4,430 # 61ae <CPU_MSTATUS_MIE+0x61a6>
    80001f60:	c398                	sw	a4,0(a5)
    80001f62:	4781                	li	a5,0
    80001f64:	aa71                	j	80002100 <OSSemPend+0x1d4>
    80001f66:	0000a797          	auipc	a5,0xa
    80001f6a:	9a778793          	add	a5,a5,-1625 # 8000b90d <OSRunning>
    80001f6e:	0007c783          	lbu	a5,0(a5)
    80001f72:	873e                	mv	a4,a5
    80001f74:	4785                	li	a5,1
    80001f76:	00f70963          	beq	a4,a5,80001f88 <OSSemPend+0x5c>
    80001f7a:	6782                	ld	a5,0(sp)
    80001f7c:	6719                	lui	a4,0x6
    80001f7e:	e8970713          	add	a4,a4,-375 # 5e89 <CPU_MSTATUS_MIE+0x5e81>
    80001f82:	c398                	sw	a4,0(a5)
    80001f84:	4781                	li	a5,0
    80001f86:	aaad                	j	80002100 <OSSemPend+0x1d4>
    80001f88:	67e2                	ld	a5,24(sp)
    80001f8a:	eb81                	bnez	a5,80001f9a <OSSemPend+0x6e>
    80001f8c:	6782                	ld	a5,0(sp)
    80001f8e:	6719                	lui	a4,0x6
    80001f90:	dc370713          	add	a4,a4,-573 # 5dc3 <CPU_MSTATUS_MIE+0x5dbb>
    80001f94:	c398                	sw	a4,0(a5)
    80001f96:	4781                	li	a5,0
    80001f98:	a2a5                	j	80002100 <OSSemPend+0x1d4>
    80001f9a:	01215783          	lhu	a5,18(sp)
    80001f9e:	2781                	sext.w	a5,a5
    80001fa0:	cf81                	beqz	a5,80001fb8 <OSSemPend+0x8c>
    80001fa2:	873e                	mv	a4,a5
    80001fa4:	67a1                	lui	a5,0x8
    80001fa6:	00f70963          	beq	a4,a5,80001fb8 <OSSemPend+0x8c>
    80001faa:	6782                	ld	a5,0(sp)
    80001fac:	6719                	lui	a4,0x6
    80001fae:	e2570713          	add	a4,a4,-475 # 5e25 <CPU_MSTATUS_MIE+0x5e1d>
    80001fb2:	c398                	sw	a4,0(a5)
    80001fb4:	4781                	li	a5,0
    80001fb6:	a2a9                	j	80002100 <OSSemPend+0x1d4>
    80001fb8:	0001                	nop
    80001fba:	67e2                	ld	a5,24(sp)
    80001fbc:	439c                	lw	a5,0(a5)
    80001fbe:	873e                	mv	a4,a5
    80001fc0:	414d47b7          	lui	a5,0x414d4
    80001fc4:	55378793          	add	a5,a5,1363 # 414d4553 <CPU_MSTATUS_MIE+0x414d454b>
    80001fc8:	00f70963          	beq	a4,a5,80001fda <OSSemPend+0xae>
    80001fcc:	6782                	ld	a5,0(sp)
    80001fce:	6719                	lui	a4,0x6
    80001fd0:	dc470713          	add	a4,a4,-572 # 5dc4 <CPU_MSTATUS_MIE+0x5dbc>
    80001fd4:	c398                	sw	a4,0(a5)
    80001fd6:	4781                	li	a5,0
    80001fd8:	a225                	j	80002100 <OSSemPend+0x1d4>
    80001fda:	b34ff0ef          	jal	8000130e <CPU_SR_Save>
    80001fde:	f42a                	sd	a0,40(sp)
    80001fe0:	67e2                	ld	a5,24(sp)
    80001fe2:	43bc                	lw	a5,64(a5)
    80001fe4:	c39d                	beqz	a5,8000200a <OSSemPend+0xde>
    80001fe6:	67e2                	ld	a5,24(sp)
    80001fe8:	43bc                	lw	a5,64(a5)
    80001fea:	37fd                	addw	a5,a5,-1
    80001fec:	0007871b          	sext.w	a4,a5
    80001ff0:	67e2                	ld	a5,24(sp)
    80001ff2:	c3b8                	sw	a4,64(a5)
    80001ff4:	67e2                	ld	a5,24(sp)
    80001ff6:	43bc                	lw	a5,64(a5)
    80001ff8:	d23e                	sw	a5,36(sp)
    80001ffa:	7522                	ld	a0,40(sp)
    80001ffc:	b1eff0ef          	jal	8000131a <CPU_SR_Restore>
    80002000:	6782                	ld	a5,0(sp)
    80002002:	0007a023          	sw	zero,0(a5)
    80002006:	5792                	lw	a5,36(sp)
    80002008:	a8e5                	j	80002100 <OSSemPend+0x1d4>
    8000200a:	01211783          	lh	a5,18(sp)
    8000200e:	0007df63          	bgez	a5,8000202c <OSSemPend+0x100>
    80002012:	67e2                	ld	a5,24(sp)
    80002014:	43bc                	lw	a5,64(a5)
    80002016:	d23e                	sw	a5,36(sp)
    80002018:	7522                	ld	a0,40(sp)
    8000201a:	b00ff0ef          	jal	8000131a <CPU_SR_Restore>
    8000201e:	6782                	ld	a5,0(sp)
    80002020:	6719                	lui	a4,0x6
    80002022:	1b070713          	add	a4,a4,432 # 61b0 <CPU_MSTATUS_MIE+0x61a8>
    80002026:	c398                	sw	a4,0(a5)
    80002028:	5792                	lw	a5,36(sp)
    8000202a:	a8d9                	j	80002100 <OSSemPend+0x1d4>
    8000202c:	0000a797          	auipc	a5,0xa
    80002030:	92e78793          	add	a5,a5,-1746 # 8000b95a <OSSchedLockNestingCtr>
    80002034:	0007c783          	lbu	a5,0(a5)
    80002038:	cb99                	beqz	a5,8000204e <OSSemPend+0x122>
    8000203a:	7522                	ld	a0,40(sp)
    8000203c:	adeff0ef          	jal	8000131a <CPU_SR_Restore>
    80002040:	6782                	ld	a5,0(sp)
    80002042:	671d                	lui	a4,0x7
    80002044:	d6370713          	add	a4,a4,-669 # 6d63 <CPU_MSTATUS_MIE+0x6d5b>
    80002048:	c398                	sw	a4,0(a5)
    8000204a:	4781                	li	a5,0
    8000204c:	a855                	j	80002100 <OSSemPend+0x1d4>
    8000204e:	0000a797          	auipc	a5,0xa
    80002052:	97a78793          	add	a5,a5,-1670 # 8000b9c8 <OSTCBCurPtr>
    80002056:	639c                	ld	a5,0(a5)
    80002058:	4752                	lw	a4,20(sp)
    8000205a:	86ba                	mv	a3,a4
    8000205c:	4619                	li	a2,6
    8000205e:	85be                	mv	a1,a5
    80002060:	6562                	ld	a0,24(sp)
    80002062:	67c030ef          	jal	800056de <OS_Pend>
    80002066:	7522                	ld	a0,40(sp)
    80002068:	ab2ff0ef          	jal	8000131a <CPU_SR_Restore>
    8000206c:	0da030ef          	jal	80005146 <OSSched>
    80002070:	a9eff0ef          	jal	8000130e <CPU_SR_Save>
    80002074:	f42a                	sd	a0,40(sp)
    80002076:	0000a797          	auipc	a5,0xa
    8000207a:	95278793          	add	a5,a5,-1710 # 8000b9c8 <OSTCBCurPtr>
    8000207e:	639c                	ld	a5,0(a5)
    80002080:	0717c783          	lbu	a5,113(a5)
    80002084:	2781                	sext.w	a5,a5
    80002086:	86be                	mv	a3,a5
    80002088:	470d                	li	a4,3
    8000208a:	02e68e63          	beq	a3,a4,800020c6 <OSSemPend+0x19a>
    8000208e:	86be                	mv	a3,a5
    80002090:	470d                	li	a4,3
    80002092:	04d74663          	blt	a4,a3,800020de <OSSemPend+0x1b2>
    80002096:	86be                	mv	a3,a5
    80002098:	4709                	li	a4,2
    8000209a:	02e68c63          	beq	a3,a4,800020d2 <OSSemPend+0x1a6>
    8000209e:	86be                	mv	a3,a5
    800020a0:	4709                	li	a4,2
    800020a2:	02d74e63          	blt	a4,a3,800020de <OSSemPend+0x1b2>
    800020a6:	c791                	beqz	a5,800020b2 <OSSemPend+0x186>
    800020a8:	873e                	mv	a4,a5
    800020aa:	4785                	li	a5,1
    800020ac:	00f70763          	beq	a4,a5,800020ba <OSSemPend+0x18e>
    800020b0:	a03d                	j	800020de <OSSemPend+0x1b2>
    800020b2:	6782                	ld	a5,0(sp)
    800020b4:	0007a023          	sw	zero,0(a5)
    800020b8:	a82d                	j	800020f2 <OSSemPend+0x1c6>
    800020ba:	6782                	ld	a5,0(sp)
    800020bc:	6719                	lui	a4,0x6
    800020be:	1a970713          	add	a4,a4,425 # 61a9 <CPU_MSTATUS_MIE+0x61a1>
    800020c2:	c398                	sw	a4,0(a5)
    800020c4:	a03d                	j	800020f2 <OSSemPend+0x1c6>
    800020c6:	6782                	ld	a5,0(sp)
    800020c8:	671d                	lui	a4,0x7
    800020ca:	2d970713          	add	a4,a4,729 # 72d9 <CPU_MSTATUS_MIE+0x72d1>
    800020ce:	c398                	sw	a4,0(a5)
    800020d0:	a00d                	j	800020f2 <OSSemPend+0x1c6>
    800020d2:	6782                	ld	a5,0(sp)
    800020d4:	6719                	lui	a4,0x6
    800020d6:	dc270713          	add	a4,a4,-574 # 5dc2 <CPU_MSTATUS_MIE+0x5dba>
    800020da:	c398                	sw	a4,0(a5)
    800020dc:	a819                	j	800020f2 <OSSemPend+0x1c6>
    800020de:	6782                	ld	a5,0(sp)
    800020e0:	671d                	lui	a4,0x7
    800020e2:	e2e70713          	add	a4,a4,-466 # 6e2e <CPU_MSTATUS_MIE+0x6e26>
    800020e6:	c398                	sw	a4,0(a5)
    800020e8:	7522                	ld	a0,40(sp)
    800020ea:	a30ff0ef          	jal	8000131a <CPU_SR_Restore>
    800020ee:	4781                	li	a5,0
    800020f0:	a801                	j	80002100 <OSSemPend+0x1d4>
    800020f2:	67e2                	ld	a5,24(sp)
    800020f4:	43bc                	lw	a5,64(a5)
    800020f6:	d23e                	sw	a5,36(sp)
    800020f8:	7522                	ld	a0,40(sp)
    800020fa:	a20ff0ef          	jal	8000131a <CPU_SR_Restore>
    800020fe:	5792                	lw	a5,36(sp)
    80002100:	853e                	mv	a0,a5
    80002102:	70e2                	ld	ra,56(sp)
    80002104:	6121                	add	sp,sp,64
    80002106:	8082                	ret

0000000080002108 <OSSemPendAbort>:
    80002108:	711d                	add	sp,sp,-96
    8000210a:	ec86                	sd	ra,88(sp)
    8000210c:	ec2a                	sd	a0,24(sp)
    8000210e:	87ae                	mv	a5,a1
    80002110:	e432                	sd	a2,8(sp)
    80002112:	00f11b23          	sh	a5,22(sp)
    80002116:	e082                	sd	zero,64(sp)
    80002118:	00009797          	auipc	a5,0x9
    8000211c:	7f478793          	add	a5,a5,2036 # 8000b90c <OSIntNestingCtr>
    80002120:	0007c783          	lbu	a5,0(a5)
    80002124:	cb81                	beqz	a5,80002134 <OSSemPendAbort+0x2c>
    80002126:	67a2                	ld	a5,8(sp)
    80002128:	6719                	lui	a4,0x6
    8000212a:	1aa70713          	add	a4,a4,426 # 61aa <CPU_MSTATUS_MIE+0x61a2>
    8000212e:	c398                	sw	a4,0(a5)
    80002130:	4781                	li	a5,0
    80002132:	a205                	j	80002252 <OSSemPendAbort+0x14a>
    80002134:	00009797          	auipc	a5,0x9
    80002138:	7d978793          	add	a5,a5,2009 # 8000b90d <OSRunning>
    8000213c:	0007c783          	lbu	a5,0(a5)
    80002140:	873e                	mv	a4,a5
    80002142:	4785                	li	a5,1
    80002144:	00f70963          	beq	a4,a5,80002156 <OSSemPendAbort+0x4e>
    80002148:	67a2                	ld	a5,8(sp)
    8000214a:	6719                	lui	a4,0x6
    8000214c:	e8970713          	add	a4,a4,-375 # 5e89 <CPU_MSTATUS_MIE+0x5e81>
    80002150:	c398                	sw	a4,0(a5)
    80002152:	4781                	li	a5,0
    80002154:	a8fd                	j	80002252 <OSSemPendAbort+0x14a>
    80002156:	67e2                	ld	a5,24(sp)
    80002158:	eb81                	bnez	a5,80002168 <OSSemPendAbort+0x60>
    8000215a:	67a2                	ld	a5,8(sp)
    8000215c:	6719                	lui	a4,0x6
    8000215e:	dc370713          	add	a4,a4,-573 # 5dc3 <CPU_MSTATUS_MIE+0x5dbb>
    80002162:	c398                	sw	a4,0(a5)
    80002164:	4781                	li	a5,0
    80002166:	a0f5                	j	80002252 <OSSemPendAbort+0x14a>
    80002168:	01615783          	lhu	a5,22(sp)
    8000216c:	2781                	sext.w	a5,a5
    8000216e:	86be                	mv	a3,a5
    80002170:	6721                	lui	a4,0x8
    80002172:	10070713          	add	a4,a4,256 # 8100 <CPU_MSTATUS_MIE+0x80f8>
    80002176:	02e68d63          	beq	a3,a4,800021b0 <OSSemPendAbort+0xa8>
    8000217a:	86be                	mv	a3,a5
    8000217c:	6721                	lui	a4,0x8
    8000217e:	10070713          	add	a4,a4,256 # 8100 <CPU_MSTATUS_MIE+0x80f8>
    80002182:	02d74063          	blt	a4,a3,800021a2 <OSSemPendAbort+0x9a>
    80002186:	86be                	mv	a3,a5
    80002188:	6721                	lui	a4,0x8
    8000218a:	02e68363          	beq	a3,a4,800021b0 <OSSemPendAbort+0xa8>
    8000218e:	86be                	mv	a3,a5
    80002190:	6721                	lui	a4,0x8
    80002192:	00d74863          	blt	a4,a3,800021a2 <OSSemPendAbort+0x9a>
    80002196:	cf89                	beqz	a5,800021b0 <OSSemPendAbort+0xa8>
    80002198:	873e                	mv	a4,a5
    8000219a:	10000793          	li	a5,256
    8000219e:	00f70963          	beq	a4,a5,800021b0 <OSSemPendAbort+0xa8>
    800021a2:	67a2                	ld	a5,8(sp)
    800021a4:	6719                	lui	a4,0x6
    800021a6:	e2570713          	add	a4,a4,-475 # 5e25 <CPU_MSTATUS_MIE+0x5e1d>
    800021aa:	c398                	sw	a4,0(a5)
    800021ac:	4781                	li	a5,0
    800021ae:	a055                	j	80002252 <OSSemPendAbort+0x14a>
    800021b0:	0001                	nop
    800021b2:	67e2                	ld	a5,24(sp)
    800021b4:	439c                	lw	a5,0(a5)
    800021b6:	873e                	mv	a4,a5
    800021b8:	414d47b7          	lui	a5,0x414d4
    800021bc:	55378793          	add	a5,a5,1363 # 414d4553 <CPU_MSTATUS_MIE+0x414d454b>
    800021c0:	00f70963          	beq	a4,a5,800021d2 <OSSemPendAbort+0xca>
    800021c4:	67a2                	ld	a5,8(sp)
    800021c6:	6719                	lui	a4,0x6
    800021c8:	dc470713          	add	a4,a4,-572 # 5dc4 <CPU_MSTATUS_MIE+0x5dbc>
    800021cc:	c398                	sw	a4,0(a5)
    800021ce:	4781                	li	a5,0
    800021d0:	a049                	j	80002252 <OSSemPendAbort+0x14a>
    800021d2:	93cff0ef          	jal	8000130e <CPU_SR_Save>
    800021d6:	e0aa                	sd	a0,64(sp)
    800021d8:	67e2                	ld	a5,24(sp)
    800021da:	07c1                	add	a5,a5,16
    800021dc:	fc3e                	sd	a5,56(sp)
    800021de:	77e2                	ld	a5,56(sp)
    800021e0:	639c                	ld	a5,0(a5)
    800021e2:	eb99                	bnez	a5,800021f8 <OSSemPendAbort+0xf0>
    800021e4:	6506                	ld	a0,64(sp)
    800021e6:	934ff0ef          	jal	8000131a <CPU_SR_Restore>
    800021ea:	67a2                	ld	a5,8(sp)
    800021ec:	6719                	lui	a4,0x6
    800021ee:	1ab70713          	add	a4,a4,427 # 61ab <CPU_MSTATUS_MIE+0x61a3>
    800021f2:	c398                	sw	a4,0(a5)
    800021f4:	4781                	li	a5,0
    800021f6:	a8b1                	j	80002252 <OSSemPendAbort+0x14a>
    800021f8:	04011723          	sh	zero,78(sp)
    800021fc:	da02                	sw	zero,52(sp)
    800021fe:	a03d                	j	8000222c <OSSemPendAbort+0x124>
    80002200:	77e2                	ld	a5,56(sp)
    80002202:	639c                	ld	a5,0(a5)
    80002204:	f43e                	sd	a5,40(sp)
    80002206:	57d2                	lw	a5,52(sp)
    80002208:	4605                	li	a2,1
    8000220a:	85be                	mv	a1,a5
    8000220c:	7522                	ld	a0,40(sp)
    8000220e:	52e030ef          	jal	8000573c <OS_PendAbort>
    80002212:	04e15783          	lhu	a5,78(sp)
    80002216:	2785                	addw	a5,a5,1
    80002218:	04f11723          	sh	a5,78(sp)
    8000221c:	01615783          	lhu	a5,22(sp)
    80002220:	0007871b          	sext.w	a4,a5
    80002224:	10000793          	li	a5,256
    80002228:	00f71663          	bne	a4,a5,80002234 <OSSemPendAbort+0x12c>
    8000222c:	77e2                	ld	a5,56(sp)
    8000222e:	639c                	ld	a5,0(a5)
    80002230:	fbe1                	bnez	a5,80002200 <OSSemPendAbort+0xf8>
    80002232:	a011                	j	80002236 <OSSemPendAbort+0x12e>
    80002234:	0001                	nop
    80002236:	6506                	ld	a0,64(sp)
    80002238:	8e2ff0ef          	jal	8000131a <CPU_SR_Restore>
    8000223c:	01611783          	lh	a5,22(sp)
    80002240:	0007c463          	bltz	a5,80002248 <OSSemPendAbort+0x140>
    80002244:	703020ef          	jal	80005146 <OSSched>
    80002248:	67a2                	ld	a5,8(sp)
    8000224a:	0007a023          	sw	zero,0(a5)
    8000224e:	04e15783          	lhu	a5,78(sp)
    80002252:	853e                	mv	a0,a5
    80002254:	60e6                	ld	ra,88(sp)
    80002256:	6125                	add	sp,sp,96
    80002258:	8082                	ret

000000008000225a <OSSemPost>:
    8000225a:	711d                	add	sp,sp,-96
    8000225c:	ec86                	sd	ra,88(sp)
    8000225e:	ec2a                	sd	a0,24(sp)
    80002260:	87ae                	mv	a5,a1
    80002262:	e432                	sd	a2,8(sp)
    80002264:	00f11b23          	sh	a5,22(sp)
    80002268:	e082                	sd	zero,64(sp)
    8000226a:	00009797          	auipc	a5,0x9
    8000226e:	6a378793          	add	a5,a5,1699 # 8000b90d <OSRunning>
    80002272:	0007c783          	lbu	a5,0(a5)
    80002276:	873e                	mv	a4,a5
    80002278:	4785                	li	a5,1
    8000227a:	00f70963          	beq	a4,a5,8000228c <OSSemPost+0x32>
    8000227e:	67a2                	ld	a5,8(sp)
    80002280:	6719                	lui	a4,0x6
    80002282:	e8970713          	add	a4,a4,-375 # 5e89 <CPU_MSTATUS_MIE+0x5e81>
    80002286:	c398                	sw	a4,0(a5)
    80002288:	4781                	li	a5,0
    8000228a:	a225                	j	800023b2 <OSSemPost+0x158>
    8000228c:	67e2                	ld	a5,24(sp)
    8000228e:	eb81                	bnez	a5,8000229e <OSSemPost+0x44>
    80002290:	67a2                	ld	a5,8(sp)
    80002292:	6719                	lui	a4,0x6
    80002294:	dc370713          	add	a4,a4,-573 # 5dc3 <CPU_MSTATUS_MIE+0x5dbb>
    80002298:	c398                	sw	a4,0(a5)
    8000229a:	4781                	li	a5,0
    8000229c:	aa19                	j	800023b2 <OSSemPost+0x158>
    8000229e:	01615783          	lhu	a5,22(sp)
    800022a2:	2781                	sext.w	a5,a5
    800022a4:	86be                	mv	a3,a5
    800022a6:	6721                	lui	a4,0x8
    800022a8:	20070713          	add	a4,a4,512 # 8200 <CPU_MSTATUS_MIE+0x81f8>
    800022ac:	02e68d63          	beq	a3,a4,800022e6 <OSSemPost+0x8c>
    800022b0:	86be                	mv	a3,a5
    800022b2:	6721                	lui	a4,0x8
    800022b4:	20070713          	add	a4,a4,512 # 8200 <CPU_MSTATUS_MIE+0x81f8>
    800022b8:	02d74063          	blt	a4,a3,800022d8 <OSSemPost+0x7e>
    800022bc:	86be                	mv	a3,a5
    800022be:	6721                	lui	a4,0x8
    800022c0:	02e68363          	beq	a3,a4,800022e6 <OSSemPost+0x8c>
    800022c4:	86be                	mv	a3,a5
    800022c6:	6721                	lui	a4,0x8
    800022c8:	00d74863          	blt	a4,a3,800022d8 <OSSemPost+0x7e>
    800022cc:	cf89                	beqz	a5,800022e6 <OSSemPost+0x8c>
    800022ce:	873e                	mv	a4,a5
    800022d0:	20000793          	li	a5,512
    800022d4:	00f70963          	beq	a4,a5,800022e6 <OSSemPost+0x8c>
    800022d8:	67a2                	ld	a5,8(sp)
    800022da:	6719                	lui	a4,0x6
    800022dc:	e2570713          	add	a4,a4,-475 # 5e25 <CPU_MSTATUS_MIE+0x5e1d>
    800022e0:	c398                	sw	a4,0(a5)
    800022e2:	4781                	li	a5,0
    800022e4:	a0f9                	j	800023b2 <OSSemPost+0x158>
    800022e6:	0001                	nop
    800022e8:	67e2                	ld	a5,24(sp)
    800022ea:	439c                	lw	a5,0(a5)
    800022ec:	873e                	mv	a4,a5
    800022ee:	414d47b7          	lui	a5,0x414d4
    800022f2:	55378793          	add	a5,a5,1363 # 414d4553 <CPU_MSTATUS_MIE+0x414d454b>
    800022f6:	00f70963          	beq	a4,a5,80002308 <OSSemPost+0xae>
    800022fa:	67a2                	ld	a5,8(sp)
    800022fc:	6719                	lui	a4,0x6
    800022fe:	dc470713          	add	a4,a4,-572 # 5dc4 <CPU_MSTATUS_MIE+0x5dbc>
    80002302:	c398                	sw	a4,0(a5)
    80002304:	4781                	li	a5,0
    80002306:	a075                	j	800023b2 <OSSemPost+0x158>
    80002308:	de02                	sw	zero,60(sp)
    8000230a:	804ff0ef          	jal	8000130e <CPU_SR_Save>
    8000230e:	e0aa                	sd	a0,64(sp)
    80002310:	67e2                	ld	a5,24(sp)
    80002312:	07c1                	add	a5,a5,16
    80002314:	f83e                	sd	a5,48(sp)
    80002316:	77c2                	ld	a5,48(sp)
    80002318:	639c                	ld	a5,0(a5)
    8000231a:	e3b9                	bnez	a5,80002360 <OSSemPost+0x106>
    8000231c:	67e2                	ld	a5,24(sp)
    8000231e:	43bc                	lw	a5,64(a5)
    80002320:	873e                	mv	a4,a5
    80002322:	57fd                	li	a5,-1
    80002324:	00f71c63          	bne	a4,a5,8000233c <OSSemPost+0xe2>
    80002328:	6506                	ld	a0,64(sp)
    8000232a:	ff1fe0ef          	jal	8000131a <CPU_SR_Restore>
    8000232e:	67a2                	ld	a5,8(sp)
    80002330:	671d                	lui	a4,0x7
    80002332:	dc570713          	add	a4,a4,-571 # 6dc5 <CPU_MSTATUS_MIE+0x6dbd>
    80002336:	c398                	sw	a4,0(a5)
    80002338:	4781                	li	a5,0
    8000233a:	a8a5                	j	800023b2 <OSSemPost+0x158>
    8000233c:	67e2                	ld	a5,24(sp)
    8000233e:	43bc                	lw	a5,64(a5)
    80002340:	2785                	addw	a5,a5,1
    80002342:	0007871b          	sext.w	a4,a5
    80002346:	67e2                	ld	a5,24(sp)
    80002348:	c3b8                	sw	a4,64(a5)
    8000234a:	67e2                	ld	a5,24(sp)
    8000234c:	43bc                	lw	a5,64(a5)
    8000234e:	d23e                	sw	a5,36(sp)
    80002350:	6506                	ld	a0,64(sp)
    80002352:	fc9fe0ef          	jal	8000131a <CPU_SR_Restore>
    80002356:	67a2                	ld	a5,8(sp)
    80002358:	0007a023          	sw	zero,0(a5)
    8000235c:	5792                	lw	a5,36(sp)
    8000235e:	a891                	j	800023b2 <OSSemPost+0x158>
    80002360:	77c2                	ld	a5,48(sp)
    80002362:	639c                	ld	a5,0(a5)
    80002364:	e4be                	sd	a5,72(sp)
    80002366:	a02d                	j	80002390 <OSSemPost+0x136>
    80002368:	67a6                	ld	a5,72(sp)
    8000236a:	6fbc                	ld	a5,88(a5)
    8000236c:	f43e                	sd	a5,40(sp)
    8000236e:	57f2                	lw	a5,60(sp)
    80002370:	873e                	mv	a4,a5
    80002372:	4681                	li	a3,0
    80002374:	4601                	li	a2,0
    80002376:	65a6                	ld	a1,72(sp)
    80002378:	6562                	ld	a0,24(sp)
    8000237a:	714030ef          	jal	80005a8e <OS_Post>
    8000237e:	01615783          	lhu	a5,22(sp)
    80002382:	2781                	sext.w	a5,a5
    80002384:	2007f793          	and	a5,a5,512
    80002388:	2781                	sext.w	a5,a5
    8000238a:	c791                	beqz	a5,80002396 <OSSemPost+0x13c>
    8000238c:	77a2                	ld	a5,40(sp)
    8000238e:	e4be                	sd	a5,72(sp)
    80002390:	67a6                	ld	a5,72(sp)
    80002392:	fbf9                	bnez	a5,80002368 <OSSemPost+0x10e>
    80002394:	a011                	j	80002398 <OSSemPost+0x13e>
    80002396:	0001                	nop
    80002398:	6506                	ld	a0,64(sp)
    8000239a:	f81fe0ef          	jal	8000131a <CPU_SR_Restore>
    8000239e:	01611783          	lh	a5,22(sp)
    800023a2:	0007c463          	bltz	a5,800023aa <OSSemPost+0x150>
    800023a6:	5a1020ef          	jal	80005146 <OSSched>
    800023aa:	67a2                	ld	a5,8(sp)
    800023ac:	0007a023          	sw	zero,0(a5)
    800023b0:	4781                	li	a5,0
    800023b2:	853e                	mv	a0,a5
    800023b4:	60e6                	ld	ra,88(sp)
    800023b6:	6125                	add	sp,sp,96
    800023b8:	8082                	ret

00000000800023ba <OSSemSet>:
    800023ba:	7139                	add	sp,sp,-64
    800023bc:	fc06                	sd	ra,56(sp)
    800023be:	ec2a                	sd	a0,24(sp)
    800023c0:	87ae                	mv	a5,a1
    800023c2:	e432                	sd	a2,8(sp)
    800023c4:	ca3e                	sw	a5,20(sp)
    800023c6:	f402                	sd	zero,40(sp)
    800023c8:	00009797          	auipc	a5,0x9
    800023cc:	54478793          	add	a5,a5,1348 # 8000b90c <OSIntNestingCtr>
    800023d0:	0007c783          	lbu	a5,0(a5)
    800023d4:	c799                	beqz	a5,800023e2 <OSSemSet+0x28>
    800023d6:	67a2                	ld	a5,8(sp)
    800023d8:	671d                	lui	a4,0x7
    800023da:	dc670713          	add	a4,a4,-570 # 6dc6 <CPU_MSTATUS_MIE+0x6dbe>
    800023de:	c398                	sw	a4,0(a5)
    800023e0:	a0bd                	j	8000244e <OSSemSet+0x94>
    800023e2:	67e2                	ld	a5,24(sp)
    800023e4:	e799                	bnez	a5,800023f2 <OSSemSet+0x38>
    800023e6:	67a2                	ld	a5,8(sp)
    800023e8:	6719                	lui	a4,0x6
    800023ea:	dc370713          	add	a4,a4,-573 # 5dc3 <CPU_MSTATUS_MIE+0x5dbb>
    800023ee:	c398                	sw	a4,0(a5)
    800023f0:	a8b9                	j	8000244e <OSSemSet+0x94>
    800023f2:	67e2                	ld	a5,24(sp)
    800023f4:	439c                	lw	a5,0(a5)
    800023f6:	873e                	mv	a4,a5
    800023f8:	414d47b7          	lui	a5,0x414d4
    800023fc:	55378793          	add	a5,a5,1363 # 414d4553 <CPU_MSTATUS_MIE+0x414d454b>
    80002400:	00f70863          	beq	a4,a5,80002410 <OSSemSet+0x56>
    80002404:	67a2                	ld	a5,8(sp)
    80002406:	6719                	lui	a4,0x6
    80002408:	dc470713          	add	a4,a4,-572 # 5dc4 <CPU_MSTATUS_MIE+0x5dbc>
    8000240c:	c398                	sw	a4,0(a5)
    8000240e:	a081                	j	8000244e <OSSemSet+0x94>
    80002410:	67a2                	ld	a5,8(sp)
    80002412:	0007a023          	sw	zero,0(a5)
    80002416:	ef9fe0ef          	jal	8000130e <CPU_SR_Save>
    8000241a:	f42a                	sd	a0,40(sp)
    8000241c:	67e2                	ld	a5,24(sp)
    8000241e:	43bc                	lw	a5,64(a5)
    80002420:	c789                	beqz	a5,8000242a <OSSemSet+0x70>
    80002422:	67e2                	ld	a5,24(sp)
    80002424:	4752                	lw	a4,20(sp)
    80002426:	c3b8                	sw	a4,64(a5)
    80002428:	a005                	j	80002448 <OSSemSet+0x8e>
    8000242a:	67e2                	ld	a5,24(sp)
    8000242c:	07c1                	add	a5,a5,16
    8000242e:	f03e                	sd	a5,32(sp)
    80002430:	7782                	ld	a5,32(sp)
    80002432:	639c                	ld	a5,0(a5)
    80002434:	e789                	bnez	a5,8000243e <OSSemSet+0x84>
    80002436:	67e2                	ld	a5,24(sp)
    80002438:	4752                	lw	a4,20(sp)
    8000243a:	c3b8                	sw	a4,64(a5)
    8000243c:	a031                	j	80002448 <OSSemSet+0x8e>
    8000243e:	67a2                	ld	a5,8(sp)
    80002440:	671d                	lui	a4,0x7
    80002442:	15f70713          	add	a4,a4,351 # 715f <CPU_MSTATUS_MIE+0x7157>
    80002446:	c398                	sw	a4,0(a5)
    80002448:	7522                	ld	a0,40(sp)
    8000244a:	ed1fe0ef          	jal	8000131a <CPU_SR_Restore>
    8000244e:	70e2                	ld	ra,56(sp)
    80002450:	6121                	add	sp,sp,64
    80002452:	8082                	ret

0000000080002454 <OS_SemClr>:
    80002454:	1101                	add	sp,sp,-32
    80002456:	ec06                	sd	ra,24(sp)
    80002458:	e42a                	sd	a0,8(sp)
    8000245a:	67a2                	ld	a5,8(sp)
    8000245c:	454e5737          	lui	a4,0x454e5
    80002460:	f4e70713          	add	a4,a4,-178 # 454e4f4e <CPU_MSTATUS_MIE+0x454e4f46>
    80002464:	c398                	sw	a4,0(a5)
    80002466:	67a2                	ld	a5,8(sp)
    80002468:	0407a023          	sw	zero,64(a5)
    8000246c:	67a2                	ld	a5,8(sp)
    8000246e:	00009717          	auipc	a4,0x9
    80002472:	f5270713          	add	a4,a4,-174 # 8000b3c0 <CPU_CntLeadZerosTbl+0x100>
    80002476:	e798                	sd	a4,8(a5)
    80002478:	67a2                	ld	a5,8(sp)
    8000247a:	07c1                	add	a5,a5,16
    8000247c:	853e                	mv	a0,a5
    8000247e:	47c030ef          	jal	800058fa <OS_PendListInit>
    80002482:	0001                	nop
    80002484:	60e2                	ld	ra,24(sp)
    80002486:	6105                	add	sp,sp,32
    80002488:	8082                	ret

000000008000248a <OS_SemDbgListAdd>:
    8000248a:	1141                	add	sp,sp,-16
    8000248c:	e42a                	sd	a0,8(sp)
    8000248e:	67a2                	ld	a5,8(sp)
    80002490:	00009717          	auipc	a4,0x9
    80002494:	f3870713          	add	a4,a4,-200 # 8000b3c8 <CPU_CntLeadZerosTbl+0x108>
    80002498:	ff98                	sd	a4,56(a5)
    8000249a:	67a2                	ld	a5,8(sp)
    8000249c:	0207b423          	sd	zero,40(a5)
    800024a0:	00009797          	auipc	a5,0x9
    800024a4:	4c878793          	add	a5,a5,1224 # 8000b968 <OSSemDbgListPtr>
    800024a8:	639c                	ld	a5,0(a5)
    800024aa:	e789                	bnez	a5,800024b4 <OS_SemDbgListAdd+0x2a>
    800024ac:	67a2                	ld	a5,8(sp)
    800024ae:	0207b823          	sd	zero,48(a5)
    800024b2:	a839                	j	800024d0 <OS_SemDbgListAdd+0x46>
    800024b4:	00009797          	auipc	a5,0x9
    800024b8:	4b478793          	add	a5,a5,1204 # 8000b968 <OSSemDbgListPtr>
    800024bc:	6398                	ld	a4,0(a5)
    800024be:	67a2                	ld	a5,8(sp)
    800024c0:	fb98                	sd	a4,48(a5)
    800024c2:	00009797          	auipc	a5,0x9
    800024c6:	4a678793          	add	a5,a5,1190 # 8000b968 <OSSemDbgListPtr>
    800024ca:	639c                	ld	a5,0(a5)
    800024cc:	6722                	ld	a4,8(sp)
    800024ce:	f798                	sd	a4,40(a5)
    800024d0:	00009797          	auipc	a5,0x9
    800024d4:	49878793          	add	a5,a5,1176 # 8000b968 <OSSemDbgListPtr>
    800024d8:	6722                	ld	a4,8(sp)
    800024da:	e398                	sd	a4,0(a5)
    800024dc:	0001                	nop
    800024de:	0141                	add	sp,sp,16
    800024e0:	8082                	ret

00000000800024e2 <OS_SemDbgListRemove>:
    800024e2:	1101                	add	sp,sp,-32
    800024e4:	e42a                	sd	a0,8(sp)
    800024e6:	67a2                	ld	a5,8(sp)
    800024e8:	779c                	ld	a5,40(a5)
    800024ea:	ec3e                	sd	a5,24(sp)
    800024ec:	67a2                	ld	a5,8(sp)
    800024ee:	7b9c                	ld	a5,48(a5)
    800024f0:	e83e                	sd	a5,16(sp)
    800024f2:	67e2                	ld	a5,24(sp)
    800024f4:	e385                	bnez	a5,80002514 <OS_SemDbgListRemove+0x32>
    800024f6:	00009797          	auipc	a5,0x9
    800024fa:	47278793          	add	a5,a5,1138 # 8000b968 <OSSemDbgListPtr>
    800024fe:	6742                	ld	a4,16(sp)
    80002500:	e398                	sd	a4,0(a5)
    80002502:	67c2                	ld	a5,16(sp)
    80002504:	c781                	beqz	a5,8000250c <OS_SemDbgListRemove+0x2a>
    80002506:	67c2                	ld	a5,16(sp)
    80002508:	0207b423          	sd	zero,40(a5)
    8000250c:	67a2                	ld	a5,8(sp)
    8000250e:	0207b823          	sd	zero,48(a5)
    80002512:	a035                	j	8000253e <OS_SemDbgListRemove+0x5c>
    80002514:	67c2                	ld	a5,16(sp)
    80002516:	eb81                	bnez	a5,80002526 <OS_SemDbgListRemove+0x44>
    80002518:	67e2                	ld	a5,24(sp)
    8000251a:	0207b823          	sd	zero,48(a5)
    8000251e:	67a2                	ld	a5,8(sp)
    80002520:	0207b423          	sd	zero,40(a5)
    80002524:	a829                	j	8000253e <OS_SemDbgListRemove+0x5c>
    80002526:	67e2                	ld	a5,24(sp)
    80002528:	6742                	ld	a4,16(sp)
    8000252a:	fb98                	sd	a4,48(a5)
    8000252c:	67c2                	ld	a5,16(sp)
    8000252e:	6762                	ld	a4,24(sp)
    80002530:	f798                	sd	a4,40(a5)
    80002532:	67a2                	ld	a5,8(sp)
    80002534:	0207b823          	sd	zero,48(a5)
    80002538:	67a2                	ld	a5,8(sp)
    8000253a:	0207b423          	sd	zero,40(a5)
    8000253e:	0001                	nop
    80002540:	6105                	add	sp,sp,32
    80002542:	8082                	ret

0000000080002544 <OSMemCreate>:
    80002544:	7159                	add	sp,sp,-112
    80002546:	f486                	sd	ra,104(sp)
    80002548:	f42a                	sd	a0,40(sp)
    8000254a:	f02e                	sd	a1,32(sp)
    8000254c:	ec32                	sd	a2,24(sp)
    8000254e:	e43e                	sd	a5,8(sp)
    80002550:	87b6                	mv	a5,a3
    80002552:	00f11b23          	sh	a5,22(sp)
    80002556:	87ba                	mv	a5,a4
    80002558:	00f11a23          	sh	a5,20(sp)
    8000255c:	e082                	sd	zero,64(sp)
    8000255e:	00009797          	auipc	a5,0x9
    80002562:	3ae78793          	add	a5,a5,942 # 8000b90c <OSIntNestingCtr>
    80002566:	0007c783          	lbu	a5,0(a5)
    8000256a:	c799                	beqz	a5,80002578 <OSMemCreate+0x34>
    8000256c:	67a2                	ld	a5,8(sp)
    8000256e:	6715                	lui	a4,0x5
    80002570:	6b970713          	add	a4,a4,1721 # 56b9 <CPU_MSTATUS_MIE+0x56b1>
    80002574:	c398                	sw	a4,0(a5)
    80002576:	aab1                	j	800026d2 <OSMemCreate+0x18e>
    80002578:	67e2                	ld	a5,24(sp)
    8000257a:	e799                	bnez	a5,80002588 <OSMemCreate+0x44>
    8000257c:	67a2                	ld	a5,8(sp)
    8000257e:	6715                	lui	a4,0x5
    80002580:	6bb70713          	add	a4,a4,1723 # 56bb <CPU_MSTATUS_MIE+0x56b3>
    80002584:	c398                	sw	a4,0(a5)
    80002586:	a2b1                	j	800026d2 <OSMemCreate+0x18e>
    80002588:	01615783          	lhu	a5,22(sp)
    8000258c:	0007871b          	sext.w	a4,a5
    80002590:	4785                	li	a5,1
    80002592:	00e7e863          	bltu	a5,a4,800025a2 <OSMemCreate+0x5e>
    80002596:	67a2                	ld	a5,8(sp)
    80002598:	6715                	lui	a4,0x5
    8000259a:	6bc70713          	add	a4,a4,1724 # 56bc <CPU_MSTATUS_MIE+0x56b4>
    8000259e:	c398                	sw	a4,0(a5)
    800025a0:	aa0d                	j	800026d2 <OSMemCreate+0x18e>
    800025a2:	01415783          	lhu	a5,20(sp)
    800025a6:	0007871b          	sext.w	a4,a5
    800025aa:	479d                	li	a5,7
    800025ac:	00e7e863          	bltu	a5,a4,800025bc <OSMemCreate+0x78>
    800025b0:	67a2                	ld	a5,8(sp)
    800025b2:	6715                	lui	a4,0x5
    800025b4:	6c170713          	add	a4,a4,1729 # 56c1 <CPU_MSTATUS_MIE+0x56b9>
    800025b8:	c398                	sw	a4,0(a5)
    800025ba:	aa21                	j	800026d2 <OSMemCreate+0x18e>
    800025bc:	479d                	li	a5,7
    800025be:	fc3e                	sd	a5,56(sp)
    800025c0:	77e2                	ld	a5,56(sp)
    800025c2:	c795                	beqz	a5,800025ee <OSMemCreate+0xaa>
    800025c4:	6762                	ld	a4,24(sp)
    800025c6:	77e2                	ld	a5,56(sp)
    800025c8:	8ff9                	and	a5,a5,a4
    800025ca:	c799                	beqz	a5,800025d8 <OSMemCreate+0x94>
    800025cc:	67a2                	ld	a5,8(sp)
    800025ce:	6715                	lui	a4,0x5
    800025d0:	6bb70713          	add	a4,a4,1723 # 56bb <CPU_MSTATUS_MIE+0x56b3>
    800025d4:	c398                	sw	a4,0(a5)
    800025d6:	a8f5                	j	800026d2 <OSMemCreate+0x18e>
    800025d8:	01415703          	lhu	a4,20(sp)
    800025dc:	77e2                	ld	a5,56(sp)
    800025de:	8ff9                	and	a5,a5,a4
    800025e0:	c799                	beqz	a5,800025ee <OSMemCreate+0xaa>
    800025e2:	67a2                	ld	a5,8(sp)
    800025e4:	6715                	lui	a4,0x5
    800025e6:	6c170713          	add	a4,a4,1729 # 56c1 <CPU_MSTATUS_MIE+0x56b9>
    800025ea:	c398                	sw	a4,0(a5)
    800025ec:	a0dd                	j	800026d2 <OSMemCreate+0x18e>
    800025ee:	67e2                	ld	a5,24(sp)
    800025f0:	e4be                	sd	a5,72(sp)
    800025f2:	67e2                	ld	a5,24(sp)
    800025f4:	e8be                	sd	a5,80(sp)
    800025f6:	01615783          	lhu	a5,22(sp)
    800025fa:	37fd                	addw	a5,a5,-1
    800025fc:	02f11b23          	sh	a5,54(sp)
    80002600:	04011f23          	sh	zero,94(sp)
    80002604:	a005                	j	80002624 <OSMemCreate+0xe0>
    80002606:	01415783          	lhu	a5,20(sp)
    8000260a:	6746                	ld	a4,80(sp)
    8000260c:	97ba                	add	a5,a5,a4
    8000260e:	e8be                	sd	a5,80(sp)
    80002610:	67a6                	ld	a5,72(sp)
    80002612:	6746                	ld	a4,80(sp)
    80002614:	e398                	sd	a4,0(a5)
    80002616:	67c6                	ld	a5,80(sp)
    80002618:	e4be                	sd	a5,72(sp)
    8000261a:	05e15783          	lhu	a5,94(sp)
    8000261e:	2785                	addw	a5,a5,1
    80002620:	04f11f23          	sh	a5,94(sp)
    80002624:	05e15703          	lhu	a4,94(sp)
    80002628:	03615783          	lhu	a5,54(sp)
    8000262c:	2701                	sext.w	a4,a4
    8000262e:	2781                	sext.w	a5,a5
    80002630:	fcf76be3          	bltu	a4,a5,80002606 <OSMemCreate+0xc2>
    80002634:	67a6                	ld	a5,72(sp)
    80002636:	0007b023          	sd	zero,0(a5)
    8000263a:	cd5fe0ef          	jal	8000130e <CPU_SR_Save>
    8000263e:	e0aa                	sd	a0,64(sp)
    80002640:	77a2                	ld	a5,40(sp)
    80002642:	439c                	lw	a5,0(a5)
    80002644:	873e                	mv	a4,a5
    80002646:	204d47b7          	lui	a5,0x204d4
    8000264a:	54d78793          	add	a5,a5,1357 # 204d454d <CPU_MSTATUS_MIE+0x204d4545>
    8000264e:	00f71b63          	bne	a4,a5,80002664 <OSMemCreate+0x120>
    80002652:	6506                	ld	a0,64(sp)
    80002654:	cc7fe0ef          	jal	8000131a <CPU_SR_Restore>
    80002658:	67a2                	ld	a5,8(sp)
    8000265a:	6719                	lui	a4,0x6
    8000265c:	dc170713          	add	a4,a4,-575 # 5dc1 <CPU_MSTATUS_MIE+0x5db9>
    80002660:	c398                	sw	a4,0(a5)
    80002662:	a885                	j	800026d2 <OSMemCreate+0x18e>
    80002664:	77a2                	ld	a5,40(sp)
    80002666:	204d4737          	lui	a4,0x204d4
    8000266a:	54d70713          	add	a4,a4,1357 # 204d454d <CPU_MSTATUS_MIE+0x204d4545>
    8000266e:	c398                	sw	a4,0(a5)
    80002670:	77a2                	ld	a5,40(sp)
    80002672:	7702                	ld	a4,32(sp)
    80002674:	e798                	sd	a4,8(a5)
    80002676:	77a2                	ld	a5,40(sp)
    80002678:	6762                	ld	a4,24(sp)
    8000267a:	eb98                	sd	a4,16(a5)
    8000267c:	77a2                	ld	a5,40(sp)
    8000267e:	6762                	ld	a4,24(sp)
    80002680:	ef98                	sd	a4,24(a5)
    80002682:	77a2                	ld	a5,40(sp)
    80002684:	01615703          	lhu	a4,22(sp)
    80002688:	02e79223          	sh	a4,36(a5)
    8000268c:	77a2                	ld	a5,40(sp)
    8000268e:	01615703          	lhu	a4,22(sp)
    80002692:	02e79123          	sh	a4,34(a5)
    80002696:	77a2                	ld	a5,40(sp)
    80002698:	01415703          	lhu	a4,20(sp)
    8000269c:	02e79023          	sh	a4,32(a5)
    800026a0:	7522                	ld	a0,40(sp)
    800026a2:	176000ef          	jal	80002818 <OS_MemDbgListAdd>
    800026a6:	00009797          	auipc	a5,0x9
    800026aa:	28a78793          	add	a5,a5,650 # 8000b930 <OSMemQty>
    800026ae:	0007d783          	lhu	a5,0(a5)
    800026b2:	2785                	addw	a5,a5,1
    800026b4:	03079713          	sll	a4,a5,0x30
    800026b8:	9341                	srl	a4,a4,0x30
    800026ba:	00009797          	auipc	a5,0x9
    800026be:	27678793          	add	a5,a5,630 # 8000b930 <OSMemQty>
    800026c2:	00e79023          	sh	a4,0(a5)
    800026c6:	6506                	ld	a0,64(sp)
    800026c8:	c53fe0ef          	jal	8000131a <CPU_SR_Restore>
    800026cc:	67a2                	ld	a5,8(sp)
    800026ce:	0007a023          	sw	zero,0(a5)
    800026d2:	70a6                	ld	ra,104(sp)
    800026d4:	6165                	add	sp,sp,112
    800026d6:	8082                	ret

00000000800026d8 <OSMemGet>:
    800026d8:	7179                	add	sp,sp,-48
    800026da:	f406                	sd	ra,40(sp)
    800026dc:	e42a                	sd	a0,8(sp)
    800026de:	e02e                	sd	a1,0(sp)
    800026e0:	ec02                	sd	zero,24(sp)
    800026e2:	67a2                	ld	a5,8(sp)
    800026e4:	eb81                	bnez	a5,800026f4 <OSMemGet+0x1c>
    800026e6:	6782                	ld	a5,0(sp)
    800026e8:	6715                	lui	a4,0x5
    800026ea:	6bf70713          	add	a4,a4,1727 # 56bf <CPU_MSTATUS_MIE+0x56b7>
    800026ee:	c398                	sw	a4,0(a5)
    800026f0:	4781                	li	a5,0
    800026f2:	a895                	j	80002766 <OSMemGet+0x8e>
    800026f4:	67a2                	ld	a5,8(sp)
    800026f6:	439c                	lw	a5,0(a5)
    800026f8:	873e                	mv	a4,a5
    800026fa:	204d47b7          	lui	a5,0x204d4
    800026fe:	54d78793          	add	a5,a5,1357 # 204d454d <CPU_MSTATUS_MIE+0x204d4545>
    80002702:	00f70963          	beq	a4,a5,80002714 <OSMemGet+0x3c>
    80002706:	6782                	ld	a5,0(sp)
    80002708:	6719                	lui	a4,0x6
    8000270a:	dc470713          	add	a4,a4,-572 # 5dc4 <CPU_MSTATUS_MIE+0x5dbc>
    8000270e:	c398                	sw	a4,0(a5)
    80002710:	4781                	li	a5,0
    80002712:	a891                	j	80002766 <OSMemGet+0x8e>
    80002714:	bfbfe0ef          	jal	8000130e <CPU_SR_Save>
    80002718:	ec2a                	sd	a0,24(sp)
    8000271a:	67a2                	ld	a5,8(sp)
    8000271c:	0247d783          	lhu	a5,36(a5)
    80002720:	eb99                	bnez	a5,80002736 <OSMemGet+0x5e>
    80002722:	6562                	ld	a0,24(sp)
    80002724:	bf7fe0ef          	jal	8000131a <CPU_SR_Restore>
    80002728:	6782                	ld	a5,0(sp)
    8000272a:	6715                	lui	a4,0x5
    8000272c:	6c270713          	add	a4,a4,1730 # 56c2 <CPU_MSTATUS_MIE+0x56ba>
    80002730:	c398                	sw	a4,0(a5)
    80002732:	4781                	li	a5,0
    80002734:	a80d                	j	80002766 <OSMemGet+0x8e>
    80002736:	67a2                	ld	a5,8(sp)
    80002738:	6f9c                	ld	a5,24(a5)
    8000273a:	e83e                	sd	a5,16(sp)
    8000273c:	67c2                	ld	a5,16(sp)
    8000273e:	6398                	ld	a4,0(a5)
    80002740:	67a2                	ld	a5,8(sp)
    80002742:	ef98                	sd	a4,24(a5)
    80002744:	67a2                	ld	a5,8(sp)
    80002746:	0247d783          	lhu	a5,36(a5)
    8000274a:	37fd                	addw	a5,a5,-1
    8000274c:	03079713          	sll	a4,a5,0x30
    80002750:	9341                	srl	a4,a4,0x30
    80002752:	67a2                	ld	a5,8(sp)
    80002754:	02e79223          	sh	a4,36(a5)
    80002758:	6562                	ld	a0,24(sp)
    8000275a:	bc1fe0ef          	jal	8000131a <CPU_SR_Restore>
    8000275e:	6782                	ld	a5,0(sp)
    80002760:	0007a023          	sw	zero,0(a5)
    80002764:	67c2                	ld	a5,16(sp)
    80002766:	853e                	mv	a0,a5
    80002768:	70a2                	ld	ra,40(sp)
    8000276a:	6145                	add	sp,sp,48
    8000276c:	8082                	ret

000000008000276e <OSMemPut>:
    8000276e:	7139                	add	sp,sp,-64
    80002770:	fc06                	sd	ra,56(sp)
    80002772:	ec2a                	sd	a0,24(sp)
    80002774:	e82e                	sd	a1,16(sp)
    80002776:	e432                	sd	a2,8(sp)
    80002778:	f402                	sd	zero,40(sp)
    8000277a:	67e2                	ld	a5,24(sp)
    8000277c:	e799                	bnez	a5,8000278a <OSMemPut+0x1c>
    8000277e:	67a2                	ld	a5,8(sp)
    80002780:	6715                	lui	a4,0x5
    80002782:	6bf70713          	add	a4,a4,1727 # 56bf <CPU_MSTATUS_MIE+0x56b7>
    80002786:	c398                	sw	a4,0(a5)
    80002788:	a069                	j	80002812 <OSMemPut+0xa4>
    8000278a:	67c2                	ld	a5,16(sp)
    8000278c:	e799                	bnez	a5,8000279a <OSMemPut+0x2c>
    8000278e:	67a2                	ld	a5,8(sp)
    80002790:	6715                	lui	a4,0x5
    80002792:	6be70713          	add	a4,a4,1726 # 56be <CPU_MSTATUS_MIE+0x56b6>
    80002796:	c398                	sw	a4,0(a5)
    80002798:	a8ad                	j	80002812 <OSMemPut+0xa4>
    8000279a:	67e2                	ld	a5,24(sp)
    8000279c:	439c                	lw	a5,0(a5)
    8000279e:	873e                	mv	a4,a5
    800027a0:	204d47b7          	lui	a5,0x204d4
    800027a4:	54d78793          	add	a5,a5,1357 # 204d454d <CPU_MSTATUS_MIE+0x204d4545>
    800027a8:	00f70863          	beq	a4,a5,800027b8 <OSMemPut+0x4a>
    800027ac:	67a2                	ld	a5,8(sp)
    800027ae:	6719                	lui	a4,0x6
    800027b0:	dc470713          	add	a4,a4,-572 # 5dc4 <CPU_MSTATUS_MIE+0x5dbc>
    800027b4:	c398                	sw	a4,0(a5)
    800027b6:	a8b1                	j	80002812 <OSMemPut+0xa4>
    800027b8:	b57fe0ef          	jal	8000130e <CPU_SR_Save>
    800027bc:	f42a                	sd	a0,40(sp)
    800027be:	67e2                	ld	a5,24(sp)
    800027c0:	0247d703          	lhu	a4,36(a5)
    800027c4:	67e2                	ld	a5,24(sp)
    800027c6:	0227d783          	lhu	a5,34(a5)
    800027ca:	2701                	sext.w	a4,a4
    800027cc:	2781                	sext.w	a5,a5
    800027ce:	00f76b63          	bltu	a4,a5,800027e4 <OSMemPut+0x76>
    800027d2:	7522                	ld	a0,40(sp)
    800027d4:	b47fe0ef          	jal	8000131a <CPU_SR_Restore>
    800027d8:	67a2                	ld	a5,8(sp)
    800027da:	6715                	lui	a4,0x5
    800027dc:	6ba70713          	add	a4,a4,1722 # 56ba <CPU_MSTATUS_MIE+0x56b2>
    800027e0:	c398                	sw	a4,0(a5)
    800027e2:	a805                	j	80002812 <OSMemPut+0xa4>
    800027e4:	67e2                	ld	a5,24(sp)
    800027e6:	6f98                	ld	a4,24(a5)
    800027e8:	67c2                	ld	a5,16(sp)
    800027ea:	e398                	sd	a4,0(a5)
    800027ec:	67e2                	ld	a5,24(sp)
    800027ee:	6742                	ld	a4,16(sp)
    800027f0:	ef98                	sd	a4,24(a5)
    800027f2:	67e2                	ld	a5,24(sp)
    800027f4:	0247d783          	lhu	a5,36(a5)
    800027f8:	2785                	addw	a5,a5,1
    800027fa:	03079713          	sll	a4,a5,0x30
    800027fe:	9341                	srl	a4,a4,0x30
    80002800:	67e2                	ld	a5,24(sp)
    80002802:	02e79223          	sh	a4,36(a5)
    80002806:	7522                	ld	a0,40(sp)
    80002808:	b13fe0ef          	jal	8000131a <CPU_SR_Restore>
    8000280c:	67a2                	ld	a5,8(sp)
    8000280e:	0007a023          	sw	zero,0(a5)
    80002812:	70e2                	ld	ra,56(sp)
    80002814:	6121                	add	sp,sp,64
    80002816:	8082                	ret

0000000080002818 <OS_MemDbgListAdd>:
    80002818:	1141                	add	sp,sp,-16
    8000281a:	e42a                	sd	a0,8(sp)
    8000281c:	67a2                	ld	a5,8(sp)
    8000281e:	0207b423          	sd	zero,40(a5)
    80002822:	00009797          	auipc	a5,0x9
    80002826:	10678793          	add	a5,a5,262 # 8000b928 <OSMemDbgListPtr>
    8000282a:	639c                	ld	a5,0(a5)
    8000282c:	e789                	bnez	a5,80002836 <OS_MemDbgListAdd+0x1e>
    8000282e:	67a2                	ld	a5,8(sp)
    80002830:	0207b823          	sd	zero,48(a5)
    80002834:	a839                	j	80002852 <OS_MemDbgListAdd+0x3a>
    80002836:	00009797          	auipc	a5,0x9
    8000283a:	0f278793          	add	a5,a5,242 # 8000b928 <OSMemDbgListPtr>
    8000283e:	6398                	ld	a4,0(a5)
    80002840:	67a2                	ld	a5,8(sp)
    80002842:	fb98                	sd	a4,48(a5)
    80002844:	00009797          	auipc	a5,0x9
    80002848:	0e478793          	add	a5,a5,228 # 8000b928 <OSMemDbgListPtr>
    8000284c:	639c                	ld	a5,0(a5)
    8000284e:	6722                	ld	a4,8(sp)
    80002850:	f798                	sd	a4,40(a5)
    80002852:	00009797          	auipc	a5,0x9
    80002856:	0d678793          	add	a5,a5,214 # 8000b928 <OSMemDbgListPtr>
    8000285a:	6722                	ld	a4,8(sp)
    8000285c:	e398                	sd	a4,0(a5)
    8000285e:	0001                	nop
    80002860:	0141                	add	sp,sp,16
    80002862:	8082                	ret

0000000080002864 <OS_MemInit>:
    80002864:	1141                	add	sp,sp,-16
    80002866:	e42a                	sd	a0,8(sp)
    80002868:	00009797          	auipc	a5,0x9
    8000286c:	0c078793          	add	a5,a5,192 # 8000b928 <OSMemDbgListPtr>
    80002870:	0007b023          	sd	zero,0(a5)
    80002874:	00009797          	auipc	a5,0x9
    80002878:	0bc78793          	add	a5,a5,188 # 8000b930 <OSMemQty>
    8000287c:	00079023          	sh	zero,0(a5)
    80002880:	67a2                	ld	a5,8(sp)
    80002882:	0007a023          	sw	zero,0(a5)
    80002886:	0001                	nop
    80002888:	0141                	add	sp,sp,16
    8000288a:	8082                	ret

000000008000288c <OSStatReset>:
    8000288c:	7139                	add	sp,sp,-64
    8000288e:	fc06                	sd	ra,56(sp)
    80002890:	e42a                	sd	a0,8(sp)
    80002892:	ec02                	sd	zero,24(sp)
    80002894:	a7bfe0ef          	jal	8000130e <CPU_SR_Save>
    80002898:	ec2a                	sd	a0,24(sp)
    8000289a:	00009797          	auipc	a5,0x9
    8000289e:	0dc78793          	add	a5,a5,220 # 8000b976 <OSStatTaskCPUUsageMax>
    800028a2:	00079023          	sh	zero,0(a5)
    800028a6:	0001a797          	auipc	a5,0x1a
    800028aa:	59a78793          	add	a5,a5,1434 # 8001ce40 <OSMsgPool>
    800028ae:	00079623          	sh	zero,12(a5)
    800028b2:	6562                	ld	a0,24(sp)
    800028b4:	a67fe0ef          	jal	8000131a <CPU_SR_Restore>
    800028b8:	a57fe0ef          	jal	8000130e <CPU_SR_Save>
    800028bc:	ec2a                	sd	a0,24(sp)
    800028be:	00009797          	auipc	a5,0x9
    800028c2:	0d278793          	add	a5,a5,210 # 8000b990 <OSTaskDbgListPtr>
    800028c6:	639c                	ld	a5,0(a5)
    800028c8:	f43e                	sd	a5,40(sp)
    800028ca:	6562                	ld	a0,24(sp)
    800028cc:	a4ffe0ef          	jal	8000131a <CPU_SR_Restore>
    800028d0:	a0b9                	j	8000291e <OSStatReset+0x92>
    800028d2:	a3dfe0ef          	jal	8000130e <CPU_SR_Save>
    800028d6:	ec2a                	sd	a0,24(sp)
    800028d8:	77a2                	ld	a5,40(sp)
    800028da:	0c07a623          	sw	zero,204(a5)
    800028de:	77a2                	ld	a5,40(sp)
    800028e0:	1007a023          	sw	zero,256(a5)
    800028e4:	77a2                	ld	a5,40(sp)
    800028e6:	0e07a423          	sw	zero,232(a5)
    800028ea:	77a2                	ld	a5,40(sp)
    800028ec:	0e079223          	sh	zero,228(a5)
    800028f0:	77a2                	ld	a5,40(sp)
    800028f2:	0e079323          	sh	zero,230(a5)
    800028f6:	77a2                	ld	a5,40(sp)
    800028f8:	0e07aa23          	sw	zero,244(a5)
    800028fc:	77a2                	ld	a5,40(sp)
    800028fe:	0e07ac23          	sw	zero,248(a5)
    80002902:	77a2                	ld	a5,40(sp)
    80002904:	0b078793          	add	a5,a5,176
    80002908:	e83e                	sd	a5,16(sp)
    8000290a:	67c2                	ld	a5,16(sp)
    8000290c:	00079a23          	sh	zero,20(a5)
    80002910:	77a2                	ld	a5,40(sp)
    80002912:	1207b783          	ld	a5,288(a5)
    80002916:	f43e                	sd	a5,40(sp)
    80002918:	6562                	ld	a0,24(sp)
    8000291a:	a01fe0ef          	jal	8000131a <CPU_SR_Restore>
    8000291e:	77a2                	ld	a5,40(sp)
    80002920:	fbcd                	bnez	a5,800028d2 <OSStatReset+0x46>
    80002922:	9edfe0ef          	jal	8000130e <CPU_SR_Save>
    80002926:	ec2a                	sd	a0,24(sp)
    80002928:	00009797          	auipc	a5,0x9
    8000292c:	02878793          	add	a5,a5,40 # 8000b950 <OSQDbgListPtr>
    80002930:	639c                	ld	a5,0(a5)
    80002932:	f03e                	sd	a5,32(sp)
    80002934:	6562                	ld	a0,24(sp)
    80002936:	9e5fe0ef          	jal	8000131a <CPU_SR_Restore>
    8000293a:	a00d                	j	8000295c <OSStatReset+0xd0>
    8000293c:	9d3fe0ef          	jal	8000130e <CPU_SR_Save>
    80002940:	ec2a                	sd	a0,24(sp)
    80002942:	7782                	ld	a5,32(sp)
    80002944:	04078793          	add	a5,a5,64
    80002948:	e83e                	sd	a5,16(sp)
    8000294a:	67c2                	ld	a5,16(sp)
    8000294c:	00079a23          	sh	zero,20(a5)
    80002950:	7782                	ld	a5,32(sp)
    80002952:	7b9c                	ld	a5,48(a5)
    80002954:	f03e                	sd	a5,32(sp)
    80002956:	6562                	ld	a0,24(sp)
    80002958:	9c3fe0ef          	jal	8000131a <CPU_SR_Restore>
    8000295c:	7782                	ld	a5,32(sp)
    8000295e:	fff9                	bnez	a5,8000293c <OSStatReset+0xb0>
    80002960:	67a2                	ld	a5,8(sp)
    80002962:	0007a023          	sw	zero,0(a5)
    80002966:	0001                	nop
    80002968:	70e2                	ld	ra,56(sp)
    8000296a:	6121                	add	sp,sp,64
    8000296c:	8082                	ret

000000008000296e <OSStatTaskCPUUsageInit>:
    8000296e:	7139                	add	sp,sp,-64
    80002970:	fc06                	sd	ra,56(sp)
    80002972:	e42a                	sd	a0,8(sp)
    80002974:	f002                	sd	zero,32(sp)
    80002976:	ce02                	sw	zero,28(sp)
    80002978:	00009797          	auipc	a5,0x9
    8000297c:	f9578793          	add	a5,a5,-107 # 8000b90d <OSRunning>
    80002980:	0007c783          	lbu	a5,0(a5)
    80002984:	873e                	mv	a4,a5
    80002986:	4785                	li	a5,1
    80002988:	00f70863          	beq	a4,a5,80002998 <OSStatTaskCPUUsageInit+0x2a>
    8000298c:	67a2                	ld	a5,8(sp)
    8000298e:	6719                	lui	a4,0x6
    80002990:	e8970713          	add	a4,a4,-375 # 5e89 <CPU_MSTATUS_MIE+0x5e81>
    80002994:	c398                	sw	a4,0(a5)
    80002996:	a8ed                	j	80002a90 <OSStatTaskCPUUsageInit+0x122>
    80002998:	087c                	add	a5,sp,28
    8000299a:	85be                	mv	a1,a5
    8000299c:	0001b517          	auipc	a0,0x1b
    800029a0:	c9450513          	add	a0,a0,-876 # 8001d630 <OSTmrTaskTCB>
    800029a4:	5cf010ef          	jal	80004772 <OSTaskSuspend>
    800029a8:	47f2                	lw	a5,28(sp)
    800029aa:	c789                	beqz	a5,800029b4 <OSStatTaskCPUUsageInit+0x46>
    800029ac:	4772                	lw	a4,28(sp)
    800029ae:	67a2                	ld	a5,8(sp)
    800029b0:	c398                	sw	a4,0(a5)
    800029b2:	a8f9                	j	80002a90 <OSStatTaskCPUUsageInit+0x122>
    800029b4:	087c                	add	a5,sp,28
    800029b6:	863e                	mv	a2,a5
    800029b8:	4581                	li	a1,0
    800029ba:	4509                	li	a0,2
    800029bc:	247040ef          	jal	80007402 <OSTimeDly>
    800029c0:	47f2                	lw	a5,28(sp)
    800029c2:	c789                	beqz	a5,800029cc <OSStatTaskCPUUsageInit+0x5e>
    800029c4:	4772                	lw	a4,28(sp)
    800029c6:	67a2                	ld	a5,8(sp)
    800029c8:	c398                	sw	a4,0(a5)
    800029ca:	a0d9                	j	80002a90 <OSStatTaskCPUUsageInit+0x122>
    800029cc:	943fe0ef          	jal	8000130e <CPU_SR_Save>
    800029d0:	f02a                	sd	a0,32(sp)
    800029d2:	00009797          	auipc	a5,0x9
    800029d6:	fa678793          	add	a5,a5,-90 # 8000b978 <OSStatTaskCtr>
    800029da:	0007a023          	sw	zero,0(a5)
    800029de:	7502                	ld	a0,32(sp)
    800029e0:	93bfe0ef          	jal	8000131a <CPU_SR_Restore>
    800029e4:	d602                	sw	zero,44(sp)
    800029e6:	00008797          	auipc	a5,0x8
    800029ea:	69a78793          	add	a5,a5,1690 # 8000b080 <OSCfg_TickRate_Hz>
    800029ee:	4398                	lw	a4,0(a5)
    800029f0:	00008797          	auipc	a5,0x8
    800029f4:	66478793          	add	a5,a5,1636 # 8000b054 <OSCfg_StatTaskRate_Hz>
    800029f8:	439c                	lw	a5,0(a5)
    800029fa:	00e7ff63          	bgeu	a5,a4,80002a18 <OSStatTaskCPUUsageInit+0xaa>
    800029fe:	00008797          	auipc	a5,0x8
    80002a02:	68278793          	add	a5,a5,1666 # 8000b080 <OSCfg_TickRate_Hz>
    80002a06:	4398                	lw	a4,0(a5)
    80002a08:	00008797          	auipc	a5,0x8
    80002a0c:	64c78793          	add	a5,a5,1612 # 8000b054 <OSCfg_StatTaskRate_Hz>
    80002a10:	439c                	lw	a5,0(a5)
    80002a12:	02f757bb          	divuw	a5,a4,a5
    80002a16:	d63e                	sw	a5,44(sp)
    80002a18:	57b2                	lw	a5,44(sp)
    80002a1a:	2781                	sext.w	a5,a5
    80002a1c:	eb99                	bnez	a5,80002a32 <OSStatTaskCPUUsageInit+0xc4>
    80002a1e:	00008797          	auipc	a5,0x8
    80002a22:	66278793          	add	a5,a5,1634 # 8000b080 <OSCfg_TickRate_Hz>
    80002a26:	439c                	lw	a5,0(a5)
    80002a28:	873e                	mv	a4,a5
    80002a2a:	47a9                	li	a5,10
    80002a2c:	02f757bb          	divuw	a5,a4,a5
    80002a30:	d63e                	sw	a5,44(sp)
    80002a32:	0878                	add	a4,sp,28
    80002a34:	57b2                	lw	a5,44(sp)
    80002a36:	863a                	mv	a2,a4
    80002a38:	4581                	li	a1,0
    80002a3a:	853e                	mv	a0,a5
    80002a3c:	1c7040ef          	jal	80007402 <OSTimeDly>
    80002a40:	087c                	add	a5,sp,28
    80002a42:	85be                	mv	a1,a5
    80002a44:	0001b517          	auipc	a0,0x1b
    80002a48:	bec50513          	add	a0,a0,-1044 # 8001d630 <OSTmrTaskTCB>
    80002a4c:	5d0010ef          	jal	8000401c <OSTaskResume>
    80002a50:	47f2                	lw	a5,28(sp)
    80002a52:	c789                	beqz	a5,80002a5c <OSStatTaskCPUUsageInit+0xee>
    80002a54:	4772                	lw	a4,28(sp)
    80002a56:	67a2                	ld	a5,8(sp)
    80002a58:	c398                	sw	a4,0(a5)
    80002a5a:	a81d                	j	80002a90 <OSStatTaskCPUUsageInit+0x122>
    80002a5c:	8b3fe0ef          	jal	8000130e <CPU_SR_Save>
    80002a60:	f02a                	sd	a0,32(sp)
    80002a62:	00009797          	auipc	a5,0x9
    80002a66:	f1678793          	add	a5,a5,-234 # 8000b978 <OSStatTaskCtr>
    80002a6a:	4398                	lw	a4,0(a5)
    80002a6c:	00009797          	auipc	a5,0x9
    80002a70:	f1078793          	add	a5,a5,-240 # 8000b97c <OSStatTaskCtrMax>
    80002a74:	c398                	sw	a4,0(a5)
    80002a76:	00009797          	auipc	a5,0x9
    80002a7a:	f0e78793          	add	a5,a5,-242 # 8000b984 <OSStatTaskRdy>
    80002a7e:	4705                	li	a4,1
    80002a80:	00e78023          	sb	a4,0(a5)
    80002a84:	7502                	ld	a0,32(sp)
    80002a86:	895fe0ef          	jal	8000131a <CPU_SR_Restore>
    80002a8a:	67a2                	ld	a5,8(sp)
    80002a8c:	0007a023          	sw	zero,0(a5)
    80002a90:	70e2                	ld	ra,56(sp)
    80002a92:	6121                	add	sp,sp,64
    80002a94:	8082                	ret

0000000080002a96 <OS_StatTask>:
    80002a96:	7119                	add	sp,sp,-128
    80002a98:	fc86                	sd	ra,120(sp)
    80002a9a:	e42a                	sd	a0,8(sp)
    80002a9c:	f402                	sd	zero,40(sp)
    80002a9e:	a839                	j	80002abc <OS_StatTask+0x26>
    80002aa0:	00008797          	auipc	a5,0x8
    80002aa4:	5b478793          	add	a5,a5,1460 # 8000b054 <OSCfg_StatTaskRate_Hz>
    80002aa8:	439c                	lw	a5,0(a5)
    80002aaa:	0017979b          	sllw	a5,a5,0x1
    80002aae:	2781                	sext.w	a5,a5
    80002ab0:	0878                	add	a4,sp,28
    80002ab2:	863a                	mv	a2,a4
    80002ab4:	4581                	li	a1,0
    80002ab6:	853e                	mv	a0,a5
    80002ab8:	14b040ef          	jal	80007402 <OSTimeDly>
    80002abc:	00009797          	auipc	a5,0x9
    80002ac0:	ec878793          	add	a5,a5,-312 # 8000b984 <OSStatTaskRdy>
    80002ac4:	0007c783          	lbu	a5,0(a5)
    80002ac8:	873e                	mv	a4,a5
    80002aca:	4785                	li	a5,1
    80002acc:	fcf71ae3          	bne	a4,a5,80002aa0 <OS_StatTask+0xa>
    80002ad0:	087c                	add	a5,sp,28
    80002ad2:	853e                	mv	a0,a5
    80002ad4:	db9ff0ef          	jal	8000288c <OSStatReset>
    80002ad8:	c282                	sw	zero,68(sp)
    80002ada:	00008797          	auipc	a5,0x8
    80002ade:	5a678793          	add	a5,a5,1446 # 8000b080 <OSCfg_TickRate_Hz>
    80002ae2:	4398                	lw	a4,0(a5)
    80002ae4:	00008797          	auipc	a5,0x8
    80002ae8:	57078793          	add	a5,a5,1392 # 8000b054 <OSCfg_StatTaskRate_Hz>
    80002aec:	439c                	lw	a5,0(a5)
    80002aee:	00e7ff63          	bgeu	a5,a4,80002b0c <OS_StatTask+0x76>
    80002af2:	00008797          	auipc	a5,0x8
    80002af6:	58e78793          	add	a5,a5,1422 # 8000b080 <OSCfg_TickRate_Hz>
    80002afa:	4398                	lw	a4,0(a5)
    80002afc:	00008797          	auipc	a5,0x8
    80002b00:	55878793          	add	a5,a5,1368 # 8000b054 <OSCfg_StatTaskRate_Hz>
    80002b04:	439c                	lw	a5,0(a5)
    80002b06:	02f757bb          	divuw	a5,a4,a5
    80002b0a:	c2be                	sw	a5,68(sp)
    80002b0c:	4796                	lw	a5,68(sp)
    80002b0e:	2781                	sext.w	a5,a5
    80002b10:	eb99                	bnez	a5,80002b26 <OS_StatTask+0x90>
    80002b12:	00008797          	auipc	a5,0x8
    80002b16:	56e78793          	add	a5,a5,1390 # 8000b080 <OSCfg_TickRate_Hz>
    80002b1a:	439c                	lw	a5,0(a5)
    80002b1c:	873e                	mv	a4,a5
    80002b1e:	47a9                	li	a5,10
    80002b20:	02f757bb          	divuw	a5,a4,a5
    80002b24:	c2be                	sw	a5,68(sp)
    80002b26:	fe8fe0ef          	jal	8000130e <CPU_SR_Save>
    80002b2a:	f42a                	sd	a0,40(sp)
    80002b2c:	00009797          	auipc	a5,0x9
    80002b30:	e4c78793          	add	a5,a5,-436 # 8000b978 <OSStatTaskCtr>
    80002b34:	4398                	lw	a4,0(a5)
    80002b36:	00009797          	auipc	a5,0x9
    80002b3a:	e4a78793          	add	a5,a5,-438 # 8000b980 <OSStatTaskCtrRun>
    80002b3e:	c398                	sw	a4,0(a5)
    80002b40:	00009797          	auipc	a5,0x9
    80002b44:	e3878793          	add	a5,a5,-456 # 8000b978 <OSStatTaskCtr>
    80002b48:	0007a023          	sw	zero,0(a5)
    80002b4c:	7522                	ld	a0,40(sp)
    80002b4e:	fccfe0ef          	jal	8000131a <CPU_SR_Restore>
    80002b52:	00009797          	auipc	a5,0x9
    80002b56:	e2a78793          	add	a5,a5,-470 # 8000b97c <OSStatTaskCtrMax>
    80002b5a:	4398                	lw	a4,0(a5)
    80002b5c:	00009797          	auipc	a5,0x9
    80002b60:	e2478793          	add	a5,a5,-476 # 8000b980 <OSStatTaskCtrRun>
    80002b64:	439c                	lw	a5,0(a5)
    80002b66:	12e7f563          	bgeu	a5,a4,80002c90 <OS_StatTask+0x1fa>
    80002b6a:	00009797          	auipc	a5,0x9
    80002b6e:	e1278793          	add	a5,a5,-494 # 8000b97c <OSStatTaskCtrMax>
    80002b72:	439c                	lw	a5,0(a5)
    80002b74:	873e                	mv	a4,a5
    80002b76:	000627b7          	lui	a5,0x62
    80002b7a:	a7f78793          	add	a5,a5,-1409 # 61a7f <CPU_MSTATUS_MIE+0x61a77>
    80002b7e:	00e7e963          	bltu	a5,a4,80002b90 <OS_StatTask+0xfa>
    80002b82:	6789                	lui	a5,0x2
    80002b84:	71078793          	add	a5,a5,1808 # 2710 <CPU_MSTATUS_MIE+0x2708>
    80002b88:	c6be                	sw	a5,76(sp)
    80002b8a:	4785                	li	a5,1
    80002b8c:	c4be                	sw	a5,72(sp)
    80002b8e:	a8b5                	j	80002c0a <OS_StatTask+0x174>
    80002b90:	00009797          	auipc	a5,0x9
    80002b94:	dec78793          	add	a5,a5,-532 # 8000b97c <OSStatTaskCtrMax>
    80002b98:	439c                	lw	a5,0(a5)
    80002b9a:	873e                	mv	a4,a5
    80002b9c:	003d17b7          	lui	a5,0x3d1
    80002ba0:	8ff78793          	add	a5,a5,-1793 # 3d08ff <CPU_MSTATUS_MIE+0x3d08f7>
    80002ba4:	00e7e863          	bltu	a5,a4,80002bb4 <OS_StatTask+0x11e>
    80002ba8:	3e800793          	li	a5,1000
    80002bac:	c6be                	sw	a5,76(sp)
    80002bae:	47a9                	li	a5,10
    80002bb0:	c4be                	sw	a5,72(sp)
    80002bb2:	a8a1                	j	80002c0a <OS_StatTask+0x174>
    80002bb4:	00009797          	auipc	a5,0x9
    80002bb8:	dc878793          	add	a5,a5,-568 # 8000b97c <OSStatTaskCtrMax>
    80002bbc:	439c                	lw	a5,0(a5)
    80002bbe:	873e                	mv	a4,a5
    80002bc0:	026267b7          	lui	a5,0x2626
    80002bc4:	9ff78793          	add	a5,a5,-1537 # 26259ff <CPU_MSTATUS_MIE+0x26259f7>
    80002bc8:	00e7e963          	bltu	a5,a4,80002bda <OS_StatTask+0x144>
    80002bcc:	06400793          	li	a5,100
    80002bd0:	c6be                	sw	a5,76(sp)
    80002bd2:	06400793          	li	a5,100
    80002bd6:	c4be                	sw	a5,72(sp)
    80002bd8:	a80d                	j	80002c0a <OS_StatTask+0x174>
    80002bda:	00009797          	auipc	a5,0x9
    80002bde:	da278793          	add	a5,a5,-606 # 8000b97c <OSStatTaskCtrMax>
    80002be2:	439c                	lw	a5,0(a5)
    80002be4:	873e                	mv	a4,a5
    80002be6:	17d787b7          	lui	a5,0x17d78
    80002bea:	3ff78793          	add	a5,a5,1023 # 17d783ff <CPU_MSTATUS_MIE+0x17d783f7>
    80002bee:	00e7e863          	bltu	a5,a4,80002bfe <OS_StatTask+0x168>
    80002bf2:	47a9                	li	a5,10
    80002bf4:	c6be                	sw	a5,76(sp)
    80002bf6:	3e800793          	li	a5,1000
    80002bfa:	c4be                	sw	a5,72(sp)
    80002bfc:	a039                	j	80002c0a <OS_StatTask+0x174>
    80002bfe:	4785                	li	a5,1
    80002c00:	c6be                	sw	a5,76(sp)
    80002c02:	6789                	lui	a5,0x2
    80002c04:	71078793          	add	a5,a5,1808 # 2710 <CPU_MSTATUS_MIE+0x2708>
    80002c08:	c4be                	sw	a5,72(sp)
    80002c0a:	00009797          	auipc	a5,0x9
    80002c0e:	d7278793          	add	a5,a5,-654 # 8000b97c <OSStatTaskCtrMax>
    80002c12:	439c                	lw	a5,0(a5)
    80002c14:	4726                	lw	a4,72(sp)
    80002c16:	02e7d7bb          	divuw	a5,a5,a4
    80002c1a:	d23e                	sw	a5,36(sp)
    80002c1c:	00009797          	auipc	a5,0x9
    80002c20:	d6478793          	add	a5,a5,-668 # 8000b980 <OSStatTaskCtrRun>
    80002c24:	439c                	lw	a5,0(a5)
    80002c26:	4736                	lw	a4,76(sp)
    80002c28:	02f707bb          	mulw	a5,a4,a5
    80002c2c:	2781                	sext.w	a5,a5
    80002c2e:	5712                	lw	a4,36(sp)
    80002c30:	02e7d7bb          	divuw	a5,a5,a4
    80002c34:	2781                	sext.w	a5,a5
    80002c36:	17c2                	sll	a5,a5,0x30
    80002c38:	93c1                	srl	a5,a5,0x30
    80002c3a:	6709                	lui	a4,0x2
    80002c3c:	7107071b          	addw	a4,a4,1808 # 2710 <CPU_MSTATUS_MIE+0x2708>
    80002c40:	40f707bb          	subw	a5,a4,a5
    80002c44:	03079713          	sll	a4,a5,0x30
    80002c48:	9341                	srl	a4,a4,0x30
    80002c4a:	00009797          	auipc	a5,0x9
    80002c4e:	d2a78793          	add	a5,a5,-726 # 8000b974 <OSStatTaskCPUUsage>
    80002c52:	00e79023          	sh	a4,0(a5)
    80002c56:	00009797          	auipc	a5,0x9
    80002c5a:	d2078793          	add	a5,a5,-736 # 8000b976 <OSStatTaskCPUUsageMax>
    80002c5e:	0007d703          	lhu	a4,0(a5)
    80002c62:	00009797          	auipc	a5,0x9
    80002c66:	d1278793          	add	a5,a5,-750 # 8000b974 <OSStatTaskCPUUsage>
    80002c6a:	0007d783          	lhu	a5,0(a5)
    80002c6e:	2701                	sext.w	a4,a4
    80002c70:	2781                	sext.w	a5,a5
    80002c72:	02f77563          	bgeu	a4,a5,80002c9c <OS_StatTask+0x206>
    80002c76:	00009797          	auipc	a5,0x9
    80002c7a:	cfe78793          	add	a5,a5,-770 # 8000b974 <OSStatTaskCPUUsage>
    80002c7e:	0007d703          	lhu	a4,0(a5)
    80002c82:	00009797          	auipc	a5,0x9
    80002c86:	cf478793          	add	a5,a5,-780 # 8000b976 <OSStatTaskCPUUsageMax>
    80002c8a:	00e79023          	sh	a4,0(a5)
    80002c8e:	a039                	j	80002c9c <OS_StatTask+0x206>
    80002c90:	00009797          	auipc	a5,0x9
    80002c94:	ce478793          	add	a5,a5,-796 # 8000b974 <OSStatTaskCPUUsage>
    80002c98:	00079023          	sh	zero,0(a5)
    80002c9c:	c75fe0ef          	jal	80001910 <OSStatTaskHook>
    80002ca0:	d482                	sw	zero,104(sp)
    80002ca2:	e6cfe0ef          	jal	8000130e <CPU_SR_Save>
    80002ca6:	f42a                	sd	a0,40(sp)
    80002ca8:	00009797          	auipc	a5,0x9
    80002cac:	ce878793          	add	a5,a5,-792 # 8000b990 <OSTaskDbgListPtr>
    80002cb0:	639c                	ld	a5,0(a5)
    80002cb2:	e8be                	sd	a5,80(sp)
    80002cb4:	7522                	ld	a0,40(sp)
    80002cb6:	e64fe0ef          	jal	8000131a <CPU_SR_Restore>
    80002cba:	a081                	j	80002cfa <OS_StatTask+0x264>
    80002cbc:	e52fe0ef          	jal	8000130e <CPU_SR_Save>
    80002cc0:	f42a                	sd	a0,40(sp)
    80002cc2:	67c6                	ld	a5,80(sp)
    80002cc4:	0f47a703          	lw	a4,244(a5)
    80002cc8:	67c6                	ld	a5,80(sp)
    80002cca:	0ee7ac23          	sw	a4,248(a5)
    80002cce:	67c6                	ld	a5,80(sp)
    80002cd0:	0e07aa23          	sw	zero,244(a5)
    80002cd4:	7522                	ld	a0,40(sp)
    80002cd6:	e44fe0ef          	jal	8000131a <CPU_SR_Restore>
    80002cda:	67c6                	ld	a5,80(sp)
    80002cdc:	0f87a783          	lw	a5,248(a5)
    80002ce0:	5726                	lw	a4,104(sp)
    80002ce2:	9fb9                	addw	a5,a5,a4
    80002ce4:	d4be                	sw	a5,104(sp)
    80002ce6:	e28fe0ef          	jal	8000130e <CPU_SR_Save>
    80002cea:	f42a                	sd	a0,40(sp)
    80002cec:	67c6                	ld	a5,80(sp)
    80002cee:	1207b783          	ld	a5,288(a5)
    80002cf2:	e8be                	sd	a5,80(sp)
    80002cf4:	7522                	ld	a0,40(sp)
    80002cf6:	e24fe0ef          	jal	8000131a <CPU_SR_Restore>
    80002cfa:	67c6                	ld	a5,80(sp)
    80002cfc:	f3e1                	bnez	a5,80002cbc <OS_StatTask+0x226>
    80002cfe:	57a6                	lw	a5,104(sp)
    80002d00:	2781                	sext.w	a5,a5
    80002d02:	cfc1                	beqz	a5,80002d9a <OS_StatTask+0x304>
    80002d04:	57a6                	lw	a5,104(sp)
    80002d06:	0007871b          	sext.w	a4,a5
    80002d0a:	000627b7          	lui	a5,0x62
    80002d0e:	a7f78793          	add	a5,a5,-1409 # 61a7f <CPU_MSTATUS_MIE+0x61a77>
    80002d12:	00e7e963          	bltu	a5,a4,80002d24 <OS_StatTask+0x28e>
    80002d16:	6789                	lui	a5,0x2
    80002d18:	71078793          	add	a5,a5,1808 # 2710 <CPU_MSTATUS_MIE+0x2708>
    80002d1c:	d0be                	sw	a5,96(sp)
    80002d1e:	4785                	li	a5,1
    80002d20:	d2be                	sw	a5,100(sp)
    80002d22:	a0ad                	j	80002d8c <OS_StatTask+0x2f6>
    80002d24:	57a6                	lw	a5,104(sp)
    80002d26:	0007871b          	sext.w	a4,a5
    80002d2a:	003d17b7          	lui	a5,0x3d1
    80002d2e:	8ff78793          	add	a5,a5,-1793 # 3d08ff <CPU_MSTATUS_MIE+0x3d08f7>
    80002d32:	00e7e863          	bltu	a5,a4,80002d42 <OS_StatTask+0x2ac>
    80002d36:	3e800793          	li	a5,1000
    80002d3a:	d0be                	sw	a5,96(sp)
    80002d3c:	47a9                	li	a5,10
    80002d3e:	d2be                	sw	a5,100(sp)
    80002d40:	a0b1                	j	80002d8c <OS_StatTask+0x2f6>
    80002d42:	57a6                	lw	a5,104(sp)
    80002d44:	0007871b          	sext.w	a4,a5
    80002d48:	026267b7          	lui	a5,0x2626
    80002d4c:	9ff78793          	add	a5,a5,-1537 # 26259ff <CPU_MSTATUS_MIE+0x26259f7>
    80002d50:	00e7e963          	bltu	a5,a4,80002d62 <OS_StatTask+0x2cc>
    80002d54:	06400793          	li	a5,100
    80002d58:	d0be                	sw	a5,96(sp)
    80002d5a:	06400793          	li	a5,100
    80002d5e:	d2be                	sw	a5,100(sp)
    80002d60:	a035                	j	80002d8c <OS_StatTask+0x2f6>
    80002d62:	57a6                	lw	a5,104(sp)
    80002d64:	0007871b          	sext.w	a4,a5
    80002d68:	17d787b7          	lui	a5,0x17d78
    80002d6c:	3ff78793          	add	a5,a5,1023 # 17d783ff <CPU_MSTATUS_MIE+0x17d783f7>
    80002d70:	00e7e863          	bltu	a5,a4,80002d80 <OS_StatTask+0x2ea>
    80002d74:	47a9                	li	a5,10
    80002d76:	d0be                	sw	a5,96(sp)
    80002d78:	3e800793          	li	a5,1000
    80002d7c:	d2be                	sw	a5,100(sp)
    80002d7e:	a039                	j	80002d8c <OS_StatTask+0x2f6>
    80002d80:	4785                	li	a5,1
    80002d82:	d0be                	sw	a5,96(sp)
    80002d84:	6789                	lui	a5,0x2
    80002d86:	71078793          	add	a5,a5,1808 # 2710 <CPU_MSTATUS_MIE+0x2708>
    80002d8a:	d2be                	sw	a5,100(sp)
    80002d8c:	57a6                	lw	a5,104(sp)
    80002d8e:	873e                	mv	a4,a5
    80002d90:	5796                	lw	a5,100(sp)
    80002d92:	02f757bb          	divuw	a5,a4,a5
    80002d96:	cebe                	sw	a5,92(sp)
    80002d98:	a021                	j	80002da0 <OS_StatTask+0x30a>
    80002d9a:	d082                	sw	zero,96(sp)
    80002d9c:	4785                	li	a5,1
    80002d9e:	cebe                	sw	a5,92(sp)
    80002da0:	d6efe0ef          	jal	8000130e <CPU_SR_Save>
    80002da4:	f42a                	sd	a0,40(sp)
    80002da6:	00009797          	auipc	a5,0x9
    80002daa:	bea78793          	add	a5,a5,-1046 # 8000b990 <OSTaskDbgListPtr>
    80002dae:	639c                	ld	a5,0(a5)
    80002db0:	e8be                	sd	a5,80(sp)
    80002db2:	7522                	ld	a0,40(sp)
    80002db4:	d66fe0ef          	jal	8000131a <CPU_SR_Restore>
    80002db8:	a069                	j	80002e42 <OS_StatTask+0x3ac>
    80002dba:	67c6                	ld	a5,80(sp)
    80002dbc:	0f87a783          	lw	a5,248(a5)
    80002dc0:	5706                	lw	a4,96(sp)
    80002dc2:	02f707bb          	mulw	a5,a4,a5
    80002dc6:	2781                	sext.w	a5,a5
    80002dc8:	4776                	lw	a4,92(sp)
    80002dca:	02e7d7bb          	divuw	a5,a5,a4
    80002dce:	2781                	sext.w	a5,a5
    80002dd0:	06f11723          	sh	a5,110(sp)
    80002dd4:	06e15783          	lhu	a5,110(sp)
    80002dd8:	0007871b          	sext.w	a4,a5
    80002ddc:	6789                	lui	a5,0x2
    80002dde:	71078793          	add	a5,a5,1808 # 2710 <CPU_MSTATUS_MIE+0x2708>
    80002de2:	00e7f763          	bgeu	a5,a4,80002df0 <OS_StatTask+0x35a>
    80002de6:	6789                	lui	a5,0x2
    80002de8:	71078793          	add	a5,a5,1808 # 2710 <CPU_MSTATUS_MIE+0x2708>
    80002dec:	06f11723          	sh	a5,110(sp)
    80002df0:	67c6                	ld	a5,80(sp)
    80002df2:	06e15703          	lhu	a4,110(sp)
    80002df6:	0ee79223          	sh	a4,228(a5)
    80002dfa:	67c6                	ld	a5,80(sp)
    80002dfc:	0e67d783          	lhu	a5,230(a5)
    80002e00:	06e15703          	lhu	a4,110(sp)
    80002e04:	2701                	sext.w	a4,a4
    80002e06:	2781                	sext.w	a5,a5
    80002e08:	00e7f763          	bgeu	a5,a4,80002e16 <OS_StatTask+0x380>
    80002e0c:	67c6                	ld	a5,80(sp)
    80002e0e:	06e15703          	lhu	a4,110(sp)
    80002e12:	0ee79323          	sh	a4,230(a5)
    80002e16:	67c6                	ld	a5,80(sp)
    80002e18:	11078713          	add	a4,a5,272
    80002e1c:	67c6                	ld	a5,80(sp)
    80002e1e:	10878793          	add	a5,a5,264
    80002e22:	0874                	add	a3,sp,28
    80002e24:	863e                	mv	a2,a5
    80002e26:	85ba                	mv	a1,a4
    80002e28:	6546                	ld	a0,80(sp)
    80002e2a:	04f010ef          	jal	80004678 <OSTaskStkChk>
    80002e2e:	ce0fe0ef          	jal	8000130e <CPU_SR_Save>
    80002e32:	f42a                	sd	a0,40(sp)
    80002e34:	67c6                	ld	a5,80(sp)
    80002e36:	1207b783          	ld	a5,288(a5)
    80002e3a:	e8be                	sd	a5,80(sp)
    80002e3c:	7522                	ld	a0,40(sp)
    80002e3e:	cdcfe0ef          	jal	8000131a <CPU_SR_Restore>
    80002e42:	67c6                	ld	a5,80(sp)
    80002e44:	fbbd                	bnez	a5,80002dba <OS_StatTask+0x324>
    80002e46:	da02                	sw	zero,52(sp)
    80002e48:	00008797          	auipc	a5,0x8
    80002e4c:	1e078793          	add	a5,a5,480 # 8000b028 <OSCfg_ISRStkBasePtr>
    80002e50:	639c                	ld	a5,0(a5)
    80002e52:	fc3e                	sd	a5,56(sp)
    80002e54:	00008797          	auipc	a5,0x8
    80002e58:	1dc78793          	add	a5,a5,476 # 8000b030 <OSCfg_ISRStkSize>
    80002e5c:	639c                	ld	a5,0(a5)
    80002e5e:	d03e                	sw	a5,32(sp)
    80002e60:	a039                	j	80002e6e <OS_StatTask+0x3d8>
    80002e62:	77e2                	ld	a5,56(sp)
    80002e64:	07a1                	add	a5,a5,8
    80002e66:	fc3e                	sd	a5,56(sp)
    80002e68:	57d2                	lw	a5,52(sp)
    80002e6a:	2785                	addw	a5,a5,1
    80002e6c:	da3e                	sw	a5,52(sp)
    80002e6e:	77e2                	ld	a5,56(sp)
    80002e70:	639c                	ld	a5,0(a5)
    80002e72:	eb81                	bnez	a5,80002e82 <OS_StatTask+0x3ec>
    80002e74:	57d2                	lw	a5,52(sp)
    80002e76:	873e                	mv	a4,a5
    80002e78:	5782                	lw	a5,32(sp)
    80002e7a:	2701                	sext.w	a4,a4
    80002e7c:	2781                	sext.w	a5,a5
    80002e7e:	fef762e3          	bltu	a4,a5,80002e62 <OS_StatTask+0x3cc>
    80002e82:	00009797          	auipc	a5,0x9
    80002e86:	a8e78793          	add	a5,a5,-1394 # 8000b910 <OSISRStkFree>
    80002e8a:	5752                	lw	a4,52(sp)
    80002e8c:	c398                	sw	a4,0(a5)
    80002e8e:	00008797          	auipc	a5,0x8
    80002e92:	1a278793          	add	a5,a5,418 # 8000b030 <OSCfg_ISRStkSize>
    80002e96:	639c                	ld	a5,0(a5)
    80002e98:	2781                	sext.w	a5,a5
    80002e9a:	5752                	lw	a4,52(sp)
    80002e9c:	9f99                	subw	a5,a5,a4
    80002e9e:	0007871b          	sext.w	a4,a5
    80002ea2:	00009797          	auipc	a5,0x9
    80002ea6:	a7278793          	add	a5,a5,-1422 # 8000b914 <OSISRStkUsed>
    80002eaa:	c398                	sw	a4,0(a5)
    80002eac:	00009797          	auipc	a5,0x9
    80002eb0:	ac678793          	add	a5,a5,-1338 # 8000b972 <OSStatResetFlag>
    80002eb4:	0007c783          	lbu	a5,0(a5)
    80002eb8:	873e                	mv	a4,a5
    80002eba:	4785                	li	a5,1
    80002ebc:	00f71c63          	bne	a4,a5,80002ed4 <OS_StatTask+0x43e>
    80002ec0:	00009797          	auipc	a5,0x9
    80002ec4:	ab278793          	add	a5,a5,-1358 # 8000b972 <OSStatResetFlag>
    80002ec8:	00078023          	sb	zero,0(a5)
    80002ecc:	087c                	add	a5,sp,28
    80002ece:	853e                	mv	a0,a5
    80002ed0:	9bdff0ef          	jal	8000288c <OSStatReset>
    80002ed4:	0878                	add	a4,sp,28
    80002ed6:	4796                	lw	a5,68(sp)
    80002ed8:	863a                	mv	a2,a4
    80002eda:	4581                	li	a1,0
    80002edc:	853e                	mv	a0,a5
    80002ede:	524040ef          	jal	80007402 <OSTimeDly>
    80002ee2:	b191                	j	80002b26 <OS_StatTask+0x90>

0000000080002ee4 <OS_StatTaskInit>:
    80002ee4:	715d                	add	sp,sp,-80
    80002ee6:	e486                	sd	ra,72(sp)
    80002ee8:	fc2a                	sd	a0,56(sp)
    80002eea:	00009797          	auipc	a5,0x9
    80002eee:	a8e78793          	add	a5,a5,-1394 # 8000b978 <OSStatTaskCtr>
    80002ef2:	0007a023          	sw	zero,0(a5)
    80002ef6:	00009797          	auipc	a5,0x9
    80002efa:	a8a78793          	add	a5,a5,-1398 # 8000b980 <OSStatTaskCtrRun>
    80002efe:	0007a023          	sw	zero,0(a5)
    80002f02:	00009797          	auipc	a5,0x9
    80002f06:	a7a78793          	add	a5,a5,-1414 # 8000b97c <OSStatTaskCtrMax>
    80002f0a:	0007a023          	sw	zero,0(a5)
    80002f0e:	00009797          	auipc	a5,0x9
    80002f12:	a7678793          	add	a5,a5,-1418 # 8000b984 <OSStatTaskRdy>
    80002f16:	00078023          	sb	zero,0(a5)
    80002f1a:	00009797          	auipc	a5,0x9
    80002f1e:	a5878793          	add	a5,a5,-1448 # 8000b972 <OSStatResetFlag>
    80002f22:	00078023          	sb	zero,0(a5)
    80002f26:	00009797          	auipc	a5,0x9
    80002f2a:	9ea78793          	add	a5,a5,-1558 # 8000b910 <OSISRStkFree>
    80002f2e:	0007a023          	sw	zero,0(a5)
    80002f32:	00009797          	auipc	a5,0x9
    80002f36:	9e278793          	add	a5,a5,-1566 # 8000b914 <OSISRStkUsed>
    80002f3a:	0007a023          	sw	zero,0(a5)
    80002f3e:	00008797          	auipc	a5,0x8
    80002f42:	11a78793          	add	a5,a5,282 # 8000b058 <OSCfg_StatTaskStkBasePtr>
    80002f46:	639c                	ld	a5,0(a5)
    80002f48:	e799                	bnez	a5,80002f56 <OS_StatTaskInit+0x72>
    80002f4a:	77e2                	ld	a5,56(sp)
    80002f4c:	671d                	lui	a4,0x7
    80002f4e:	e2b70713          	add	a4,a4,-469 # 6e2b <CPU_MSTATUS_MIE+0x6e23>
    80002f52:	c398                	sw	a4,0(a5)
    80002f54:	a055                	j	80002ff8 <OS_StatTaskInit+0x114>
    80002f56:	00008797          	auipc	a5,0x8
    80002f5a:	11278793          	add	a5,a5,274 # 8000b068 <OSCfg_StatTaskStkSize>
    80002f5e:	6398                	ld	a4,0(a5)
    80002f60:	00008797          	auipc	a5,0x8
    80002f64:	11878793          	add	a5,a5,280 # 8000b078 <OSCfg_StkSizeMin>
    80002f68:	639c                	ld	a5,0(a5)
    80002f6a:	00f77863          	bgeu	a4,a5,80002f7a <OS_StatTaskInit+0x96>
    80002f6e:	77e2                	ld	a5,56(sp)
    80002f70:	671d                	lui	a4,0x7
    80002f72:	e2c70713          	add	a4,a4,-468 # 6e2c <CPU_MSTATUS_MIE+0x6e24>
    80002f76:	c398                	sw	a4,0(a5)
    80002f78:	a041                	j	80002ff8 <OS_StatTaskInit+0x114>
    80002f7a:	00008797          	auipc	a5,0x8
    80002f7e:	0d678793          	add	a5,a5,214 # 8000b050 <OSCfg_StatTaskPrio>
    80002f82:	0007c783          	lbu	a5,0(a5)
    80002f86:	873e                	mv	a4,a5
    80002f88:	03e00793          	li	a5,62
    80002f8c:	00e7f863          	bgeu	a5,a4,80002f9c <OS_StatTaskInit+0xb8>
    80002f90:	77e2                	ld	a5,56(sp)
    80002f92:	671d                	lui	a4,0x7
    80002f94:	e2a70713          	add	a4,a4,-470 # 6e2a <CPU_MSTATUS_MIE+0x6e22>
    80002f98:	c398                	sw	a4,0(a5)
    80002f9a:	a8b9                	j	80002ff8 <OS_StatTaskInit+0x114>
    80002f9c:	00008797          	auipc	a5,0x8
    80002fa0:	0b478793          	add	a5,a5,180 # 8000b050 <OSCfg_StatTaskPrio>
    80002fa4:	0007c703          	lbu	a4,0(a5)
    80002fa8:	00008797          	auipc	a5,0x8
    80002fac:	0b078793          	add	a5,a5,176 # 8000b058 <OSCfg_StatTaskStkBasePtr>
    80002fb0:	6394                	ld	a3,0(a5)
    80002fb2:	00008797          	auipc	a5,0x8
    80002fb6:	0ae78793          	add	a5,a5,174 # 8000b060 <OSCfg_StatTaskStkLimit>
    80002fba:	6390                	ld	a2,0(a5)
    80002fbc:	00008797          	auipc	a5,0x8
    80002fc0:	0ac78793          	add	a5,a5,172 # 8000b068 <OSCfg_StatTaskStkSize>
    80002fc4:	638c                	ld	a1,0(a5)
    80002fc6:	77e2                	ld	a5,56(sp)
    80002fc8:	f03e                	sd	a5,32(sp)
    80002fca:	478d                	li	a5,3
    80002fcc:	ec3e                	sd	a5,24(sp)
    80002fce:	e802                	sd	zero,16(sp)
    80002fd0:	e402                	sd	zero,8(sp)
    80002fd2:	e002                	sd	zero,0(sp)
    80002fd4:	88ae                	mv	a7,a1
    80002fd6:	8832                	mv	a6,a2
    80002fd8:	87b6                	mv	a5,a3
    80002fda:	4681                	li	a3,0
    80002fdc:	00000617          	auipc	a2,0x0
    80002fe0:	aba60613          	add	a2,a2,-1350 # 80002a96 <OS_StatTask>
    80002fe4:	00008597          	auipc	a1,0x8
    80002fe8:	3ec58593          	add	a1,a1,1004 # 8000b3d0 <CPU_CntLeadZerosTbl+0x110>
    80002fec:	0001a517          	auipc	a0,0x1a
    80002ff0:	46450513          	add	a0,a0,1124 # 8001d450 <OSStatTaskTCB>
    80002ff4:	570000ef          	jal	80003564 <OSTaskCreate>
    80002ff8:	60a6                	ld	ra,72(sp)
    80002ffa:	6161                	add	sp,sp,80
    80002ffc:	8082                	ret

0000000080002ffe <OSCfg_Init>:
    80002ffe:	0001                	nop
    80003000:	8082                	ret

0000000080003002 <OS_MsgPoolInit>:
    80003002:	7179                	add	sp,sp,-48
    80003004:	e42a                	sd	a0,8(sp)
    80003006:	00008797          	auipc	a5,0x8
    8000300a:	04278793          	add	a5,a5,66 # 8000b048 <OSCfg_MsgPoolBasePtr>
    8000300e:	639c                	ld	a5,0(a5)
    80003010:	e799                	bnez	a5,8000301e <OS_MsgPoolInit+0x1c>
    80003012:	67a2                	ld	a5,8(sp)
    80003014:	6715                	lui	a4,0x5
    80003016:	71e70713          	add	a4,a4,1822 # 571e <CPU_MSTATUS_MIE+0x5716>
    8000301a:	c398                	sw	a4,0(a5)
    8000301c:	a0dd                	j	80003102 <OS_MsgPoolInit+0x100>
    8000301e:	00008797          	auipc	a5,0x8
    80003022:	01e78793          	add	a5,a5,30 # 8000b03c <OSCfg_MsgPoolSize>
    80003026:	0007d783          	lhu	a5,0(a5)
    8000302a:	e799                	bnez	a5,80003038 <OS_MsgPoolInit+0x36>
    8000302c:	67a2                	ld	a5,8(sp)
    8000302e:	6715                	lui	a4,0x5
    80003030:	71d70713          	add	a4,a4,1821 # 571d <CPU_MSTATUS_MIE+0x5715>
    80003034:	c398                	sw	a4,0(a5)
    80003036:	a0f1                	j	80003102 <OS_MsgPoolInit+0x100>
    80003038:	00008797          	auipc	a5,0x8
    8000303c:	01078793          	add	a5,a5,16 # 8000b048 <OSCfg_MsgPoolBasePtr>
    80003040:	639c                	ld	a5,0(a5)
    80003042:	f43e                	sd	a5,40(sp)
    80003044:	00008797          	auipc	a5,0x8
    80003048:	00478793          	add	a5,a5,4 # 8000b048 <OSCfg_MsgPoolBasePtr>
    8000304c:	639c                	ld	a5,0(a5)
    8000304e:	f03e                	sd	a5,32(sp)
    80003050:	7782                	ld	a5,32(sp)
    80003052:	07e1                	add	a5,a5,24
    80003054:	f03e                	sd	a5,32(sp)
    80003056:	00008797          	auipc	a5,0x8
    8000305a:	fe678793          	add	a5,a5,-26 # 8000b03c <OSCfg_MsgPoolSize>
    8000305e:	0007d783          	lhu	a5,0(a5)
    80003062:	37fd                	addw	a5,a5,-1
    80003064:	00f11e23          	sh	a5,28(sp)
    80003068:	00011f23          	sh	zero,30(sp)
    8000306c:	a02d                	j	80003096 <OS_MsgPoolInit+0x94>
    8000306e:	77a2                	ld	a5,40(sp)
    80003070:	7702                	ld	a4,32(sp)
    80003072:	e398                	sd	a4,0(a5)
    80003074:	77a2                	ld	a5,40(sp)
    80003076:	0007b423          	sd	zero,8(a5)
    8000307a:	77a2                	ld	a5,40(sp)
    8000307c:	00079823          	sh	zero,16(a5)
    80003080:	77a2                	ld	a5,40(sp)
    80003082:	07e1                	add	a5,a5,24
    80003084:	f43e                	sd	a5,40(sp)
    80003086:	7782                	ld	a5,32(sp)
    80003088:	07e1                	add	a5,a5,24
    8000308a:	f03e                	sd	a5,32(sp)
    8000308c:	01e15783          	lhu	a5,30(sp)
    80003090:	2785                	addw	a5,a5,1
    80003092:	00f11f23          	sh	a5,30(sp)
    80003096:	01e15703          	lhu	a4,30(sp)
    8000309a:	01c15783          	lhu	a5,28(sp)
    8000309e:	2701                	sext.w	a4,a4
    800030a0:	2781                	sext.w	a5,a5
    800030a2:	fcf766e3          	bltu	a4,a5,8000306e <OS_MsgPoolInit+0x6c>
    800030a6:	77a2                	ld	a5,40(sp)
    800030a8:	0007b023          	sd	zero,0(a5)
    800030ac:	77a2                	ld	a5,40(sp)
    800030ae:	0007b423          	sd	zero,8(a5)
    800030b2:	77a2                	ld	a5,40(sp)
    800030b4:	00079823          	sh	zero,16(a5)
    800030b8:	00008797          	auipc	a5,0x8
    800030bc:	f9078793          	add	a5,a5,-112 # 8000b048 <OSCfg_MsgPoolBasePtr>
    800030c0:	6398                	ld	a4,0(a5)
    800030c2:	0001a797          	auipc	a5,0x1a
    800030c6:	d7e78793          	add	a5,a5,-642 # 8001ce40 <OSMsgPool>
    800030ca:	e398                	sd	a4,0(a5)
    800030cc:	00008797          	auipc	a5,0x8
    800030d0:	f7078793          	add	a5,a5,-144 # 8000b03c <OSCfg_MsgPoolSize>
    800030d4:	0007d703          	lhu	a4,0(a5)
    800030d8:	0001a797          	auipc	a5,0x1a
    800030dc:	d6878793          	add	a5,a5,-664 # 8001ce40 <OSMsgPool>
    800030e0:	00e79423          	sh	a4,8(a5)
    800030e4:	0001a797          	auipc	a5,0x1a
    800030e8:	d5c78793          	add	a5,a5,-676 # 8001ce40 <OSMsgPool>
    800030ec:	00079523          	sh	zero,10(a5)
    800030f0:	0001a797          	auipc	a5,0x1a
    800030f4:	d5078793          	add	a5,a5,-688 # 8001ce40 <OSMsgPool>
    800030f8:	00079623          	sh	zero,12(a5)
    800030fc:	67a2                	ld	a5,8(sp)
    800030fe:	0007a023          	sw	zero,0(a5)
    80003102:	6145                	add	sp,sp,48
    80003104:	8082                	ret

0000000080003106 <OS_MsgQFreeAll>:
    80003106:	1101                	add	sp,sp,-32
    80003108:	e42a                	sd	a0,8(sp)
    8000310a:	67a2                	ld	a5,8(sp)
    8000310c:	0127d783          	lhu	a5,18(a5)
    80003110:	00f11f23          	sh	a5,30(sp)
    80003114:	67a2                	ld	a5,8(sp)
    80003116:	0127d783          	lhu	a5,18(a5)
    8000311a:	c7c9                	beqz	a5,800031a4 <OS_MsgQFreeAll+0x9e>
    8000311c:	67a2                	ld	a5,8(sp)
    8000311e:	639c                	ld	a5,0(a5)
    80003120:	e83e                	sd	a5,16(sp)
    80003122:	0001a797          	auipc	a5,0x1a
    80003126:	d1e78793          	add	a5,a5,-738 # 8001ce40 <OSMsgPool>
    8000312a:	6398                	ld	a4,0(a5)
    8000312c:	67c2                	ld	a5,16(sp)
    8000312e:	e398                	sd	a4,0(a5)
    80003130:	67a2                	ld	a5,8(sp)
    80003132:	6798                	ld	a4,8(a5)
    80003134:	0001a797          	auipc	a5,0x1a
    80003138:	d0c78793          	add	a5,a5,-756 # 8001ce40 <OSMsgPool>
    8000313c:	e398                	sd	a4,0(a5)
    8000313e:	0001a797          	auipc	a5,0x1a
    80003142:	d0278793          	add	a5,a5,-766 # 8001ce40 <OSMsgPool>
    80003146:	00a7d703          	lhu	a4,10(a5)
    8000314a:	67a2                	ld	a5,8(sp)
    8000314c:	0127d783          	lhu	a5,18(a5)
    80003150:	40f707bb          	subw	a5,a4,a5
    80003154:	03079713          	sll	a4,a5,0x30
    80003158:	9341                	srl	a4,a4,0x30
    8000315a:	0001a797          	auipc	a5,0x1a
    8000315e:	ce678793          	add	a5,a5,-794 # 8001ce40 <OSMsgPool>
    80003162:	00e79523          	sh	a4,10(a5)
    80003166:	0001a797          	auipc	a5,0x1a
    8000316a:	cda78793          	add	a5,a5,-806 # 8001ce40 <OSMsgPool>
    8000316e:	0087d703          	lhu	a4,8(a5)
